ccopy_reg
_reconstructor
p0
(cpandas.core.frame
DataFrame
p1
c__builtin__
object
p2
Ntp3
Rp4
(dp5
S'_metadata'
p6
(lp7
sS'_typ'
p8
S'dataframe'
p9
sS'_data'
p10
g0
(cpandas.core.internals
BlockManager
p11
g2
Ntp12
Rp13
((lp14
cpandas.indexes.base
_new_Index
p15
(cpandas.indexes.base
Index
p16
(dp17
S'data'
p18
cnumpy.core.multiarray
_reconstruct
p19
(cnumpy
ndarray
p20
(I0
tp21
S'b'
p22
tp23
Rp24
(I1
(L8L
tp25
cnumpy
dtype
p26
(S'O8'
p27
I0
I1
tp28
Rp29
(I3
S'|'
p30
NNNI-1
I-1
I63
tp31
bI00
(lp32
S'level_0'
p33
aS'level_1'
p34
aS'load'
p35
aS'end'
p36
aS'value'
p37
aS'start'
p38
aS'time'
p39
aS'path'
p40
atp41
bsS'name'
p42
Nstp43
Rp44
ag15
(cpandas.indexes.range
RangeIndex
p45
(dp46
g38
I0
sS'step'
p47
I1
sS'stop'
p48
I240
sg42
Nstp49
Rp50
a(lp51
g19
(g20
(I0
tp52
g22
tp53
Rp54
(I1
(L5L
L240L
tp55
g26
(S'f8'
p56
I0
I1
tp57
Rp58
(I3
S'<'
p59
NNNI-1
I-1
I0
tp60
bI00
S'\x00\x00\x00\x00\x00\x00\xe0?\x00\x00\x00\x00\x00\x00\x00\x00\x00\x00\x00\x00\x00\x00\xe0?\x00\x00\x00\x00\x00\x00\xe0?\x00\x00\x00\x00\x00\x00\xe0?\x00\x00\x00\x00\x00\x00\xe8?\x00\x00\x00\x00\x00\x00\xe0?\x00\x00\x00\x00\x00\x00\xe0?\x00\x00\x00\x00\x00\x00\xe0?\x00\x00\x00\x00\x00\x00\xe0?\x00\x00\x00\x00\x00\x00\xe0?\x00\x00\x00\x00\x00\x00\xe0?\x00\x00\x00\x00\x00\x00\xe0?\x00\x00\x00\x00\x00\x00\xe0?\x00\x00\x00\x00\x00\x00\xe0?\x00\x00\x00\x00\x00\x00\xe0?\x00\x00\x00\x00\x00\x00\x00\x00\x00\x00\x00\x00\x00\x00\xe0?\x00\x00\x00\x00\x00\x00\xe0?\x00\x00\x00\x00\x00\x00\xe0?\x00\x00\x00\x00\x00\x00\xe8?\x00\x00\x00\x00\x00\x00\xe0?\x00\x00\x00\x00\x00\x00\xe0?\x00\x00\x00\x00\x00\x00\xe0?\x00\x00\x00\x00\x00\x00\xe0?\x00\x00\x00\x00\x00\x00\xe0?\x00\x00\x00\x00\x00\x00\xe0?\x00\x00\x00\x00\x00\x00\xe0?\x00\x00\x00\x00\x00\x00\xe0?\x00\x00\x00\x00\x00\x00\xe0?\x00\x00\x00\x00\x00\x00\xe0?\x00\x00\x00\x00\x00\x00\xe0?\x00\x00\x00\x00\x00\x00\xe0?\x00\x00\x00\x00\x00\x00\xe0?\x00\x00\x00\x00\x00\x00\xe0?\x00\x00\x00\x00\x00\x00\xe8?\x00\x00\x00\x00\x00\x00\xe0?\x00\x00\x00\x00\x00\x00\xe0?\x00\x00\x00\x00\x00\x00\xe0?\x00\x00\x00\x00\x00\x00\xe0?\x00\x00\x00\x00\x00\x00\xe0?\x00\x00\x00\x00\x00\x00\xe0?\x00\x00\x00\x00\x00\x00\xe0?\x00\x00\x00\x00\x00\x00\xe0?\x00\x00\x00\x00\x00\x00\xe0?\x00\x00\x00\x00\x00\x00\xe0?\x00\x00\x00\x00\x00\x00\xe0?\x00\x00\x00\x00\x00\x00\x00\x00\x00\x00\x00\x00\x00\x00\xe0?\x00\x00\x00\x00\x00\x00\xe0?\x00\x00\x00\x00\x00\x00\xe8?\x00\x00\x00\x00\x00\x00\xe0?\x00\x00\x00\x00\x00\x00\xe0?\x00\x00\x00\x00\x00\x00\xe0?\x00\x00\x00\x00\x00\x00\xe0?\x00\x00\x00\x00\x00\x00\xe0?\x00\x00\x00\x00\x00\x00\xe0?\x00\x00\x00\x00\x00\x00\xe0?\x00\x00\x00\x00\x00\x00\xe0?\x00\x00\x00\x00\x00\x00\xe0?\x00\x00\x00\x00\x00\x00\xe0?\x00\x00\x00\x00\x00\x00\xe0?\x00\x00\x00\x00\x00\x00\x00\x00\x00\x00\x00\x00\x00\x00\xe0?\x00\x00\x00\x00\x00\x00\xe0?\x00\x00\x00\x00\x00\x00\xe8?\x00\x00\x00\x00\x00\x00\xe0?\x00\x00\x00\x00\x00\x00\xe0?\x00\x00\x00\x00\x00\x00\xe0?\x00\x00\x00\x00\x00\x00\xe0?\x00\x00\x00\x00\x00\x00\xe0?\x00\x00\x00\x00\x00\x00\xe0?\x00\x00\x00\x00\x00\x00\xe0?\x00\x00\x00\x00\x00\x00\xe0?\x00\x00\x00\x00\x00\x00\xe0?\x00\x00\x00\x00\x00\x00\xe0?\x00\x00\x00\x00\x00\x00\xe0?\x00\x00\x00\x00\x00\x00\x00\x00\x00\x00\x00\x00\x00\x00\xe0?\x00\x00\x00\x00\x00\x00\xe0?\x00\x00\x00\x00\x00\x00\xe8?\x00\x00\x00\x00\x00\x00\xe0?\x00\x00\x00\x00\x00\x00\xe0?\x00\x00\x00\x00\x00\x00\xe0?\x00\x00\x00\x00\x00\x00\xe0?\x00\x00\x00\x00\x00\x00\xe0?\x00\x00\x00\x00\x00\x00\xe0?\x00\x00\x00\x00\x00\x00\xe0?\x00\x00\x00\x00\x00\x00\xe0?\x00\x00\x00\x00\x00\x00\xe0?\x00\x00\x00\x00\x00\x00\xe0?\x00\x00\x00\x00\x00\x00\xe0?\x00\x00\x00\x00\x00\x00\x00\x00\x00\x00\x00\x00\x00\x00\xe0?\x00\x00\x00\x00\x00\x00\xe0?\x00\x00\x00\x00\x00\x00\xe0?\x00\x00\x00\x00\x00\x00\xe0?\x00\x00\x00\x00\x00\x00\xe0?\x00\x00\x00\x00\x00\x00\xe0?\x00\x00\x00\x00\x00\x00\xe0?\x00\x00\x00\x00\x00\x00\xe0?\x00\x00\x00\x00\x00\x00\xe0?\x00\x00\x00\x00\x00\x00\xe0?\x00\x00\x00\x00\x00\x00\xe0?\x00\x00\x00\x00\x00\x00\xe0?\x00\x00\x00\x00\x00\x00\xe0?\x00\x00\x00\x00\x00\x00\xe0?\x00\x00\x00\x00\x00\x00\x00\x00\x00\x00\x00\x00\x00\x00\xe0?\x00\x00\x00\x00\x00\x00\xe0?\x00\x00\x00\x00\x00\x00\xe0?\x00\x00\x00\x00\x00\x00\xe8?\x00\x00\x00\x00\x00\x00\xe0?\x00\x00\x00\x00\x00\x00\xe0?\x00\x00\x00\x00\x00\x00\xe0?\x00\x00\x00\x00\x00\x00\xe0?\x00\x00\x00\x00\x00\x00\xe0?\x00\x00\x00\x00\x00\x00\xe0?\x00\x00\x00\x00\x00\x00\xe0?\x00\x00\x00\x00\x00\x00\xe0?\x00\x00\x00\x00\x00\x00\xe0?\x00\x00\x00\x00\x00\x00\xe0?\x00\x00\x00\x00\x00\x00\x00\x00\x00\x00\x00\x00\x00\x00\xe0?\x00\x00\x00\x00\x00\x00\xe0?\x00\x00\x00\x00\x00\x00\xe0?\x00\x00\x00\x00\x00\x00\xe8?\x00\x00\x00\x00\x00\x00\xe0?\x00\x00\x00\x00\x00\x00\xe0?\x00\x00\x00\x00\x00\x00\xe0?\x00\x00\x00\x00\x00\x00\xe0?\x00\x00\x00\x00\x00\x00\xe0?\x00\x00\x00\x00\x00\x00\xe0?\x00\x00\x00\x00\x00\x00\xe0?\x00\x00\x00\x00\x00\x00\xe0?\x00\x00\x00\x00\x00\x00\xe0?\x00\x00\x00\x00\x00\x00\xe0?\x00\x00\x00\x00\x00\x00\x00\x00\x00\x00\x00\x00\x00\x00\xe0?\x00\x00\x00\x00\x00\x00\xe0?\x00\x00\x00\x00\x00\x00\xe0?\x00\x00\x00\x00\x00\x00\xe8?\x00\x00\x00\x00\x00\x00\xe0?\x00\x00\x00\x00\x00\x00\xe0?\x00\x00\x00\x00\x00\x00\xe0?\x00\x00\x00\x00\x00\x00\xe0?\x00\x00\x00\x00\x00\x00\xe0?\x00\x00\x00\x00\x00\x00\xe0?\x00\x00\x00\x00\x00\x00\xe0?\x00\x00\x00\x00\x00\x00\xe0?\x00\x00\x00\x00\x00\x00\xe0?\x00\x00\x00\x00\x00\x00\xe0?\x00\x00\x00\x00\x00\x00\x00\x00\x00\x00\x00\x00\x00\x00\xe0?\x00\x00\x00\x00\x00\x00\xe0?\x00\x00\x00\x00\x00\x00\xe0?\x00\x00\x00\x00\x00\x00\xe8?\x00\x00\x00\x00\x00\x00\xe0?\x00\x00\x00\x00\x00\x00\xe0?\x00\x00\x00\x00\x00\x00\xe0?\x00\x00\x00\x00\x00\x00\xe0?\x00\x00\x00\x00\x00\x00\xe0?\x00\x00\x00\x00\x00\x00\xe0?\x00\x00\x00\x00\x00\x00\xe0?\x00\x00\x00\x00\x00\x00\xe0?\x00\x00\x00\x00\x00\x00\xe0?\x00\x00\x00\x00\x00\x00\xe0?\x00\x00\x00\x00\x00\x00\x00\x00\x00\x00\x00\x00\x00\x00\xe0?\x00\x00\x00\x00\x00\x00\xe0?\x00\x00\x00\x00\x00\x00\xe0?\x00\x00\x00\x00\x00\x00\xe8?\x00\x00\x00\x00\x00\x00\xe0?\x00\x00\x00\x00\x00\x00\xe0?\x00\x00\x00\x00\x00\x00\xe0?\x00\x00\x00\x00\x00\x00\xe0?\x00\x00\x00\x00\x00\x00\xe0?\x00\x00\x00\x00\x00\x00\xe0?\x00\x00\x00\x00\x00\x00\xe0?\x00\x00\x00\x00\x00\x00\xe0?\x00\x00\x00\x00\x00\x00\xe0?\x00\x00\x00\x00\x00\x00\xe0?\x00\x00\x00\x00\x00\x00\x00\x00\x00\x00\x00\x00\x00\x00\xe0?\x00\x00\x00\x00\x00\x00\xe0?\x00\x00\x00\x00\x00\x00\xe0?\x00\x00\x00\x00\x00\x00\xe8?\x00\x00\x00\x00\x00\x00\xe0?\x00\x00\x00\x00\x00\x00\xe0?\x00\x00\x00\x00\x00\x00\xe0?\x00\x00\x00\x00\x00\x00\xe0?\x00\x00\x00\x00\x00\x00\xe0?\x00\x00\x00\x00\x00\x00\xe0?\x00\x00\x00\x00\x00\x00\xe0?\x00\x00\x00\x00\x00\x00\xe0?\x00\x00\x00\x00\x00\x00\xe0?\x00\x00\x00\x00\x00\x00\xe0?\x00\x00\x00\x00\x00\x00\x00\x00\x00\x00\x00\x00\x00\x00\xe0?\x00\x00\x00\x00\x00\x00\xe0?\x00\x00\x00\x00\x00\x00\xe0?\x00\x00\x00\x00\x00\x00\xe8?\x00\x00\x00\x00\x00\x00\xe0?\x00\x00\x00\x00\x00\x00\xe0?\x00\x00\x00\x00\x00\x00\xe0?\x00\x00\x00\x00\x00\x00\xe0?\x00\x00\x00\x00\x00\x00\xe0?\x00\x00\x00\x00\x00\x00\xe0?\x00\x00\x00\x00\x00\x00\xe0?\x00\x00\x00\x00\x00\x00\xe0?\x00\x00\x00\x00\x00\x00\xe0?\x00\x00\x00\x00\x00\x00\xe0?\x00\x00\x00\x00\x00\x00\x00\x00\x00\x00\x00\x00\x00\x00\xe0?\x00\x00\x00\x00\x00\x00\xe0?\x00\x00\x00\x00\x00\x00\xe0?\x00\x00\x00\x00\x00\x00\xe8?\x00\x00\x00\x00\x00\x00\xe0?\x00\x00\x00\x00\x00\x00\xe0?\x00\x00\x00\x00\x00\x00\xe0?\x00\x00\x00\x00\x00\x00\xe0?\x00\x00\x00\x00\x00\x00\xe0?\x00\x00\x00\x00\x00\x00\xe0?\x00\x00\x00\x00\x00\x00\xe0?\x00\x00\x00\x00\x00\x00\xe0?\x00\x00\x00\x00\x00\x00\xe0?\x00\x00\x00\x00\x00\x00\xe0?\x00\x00\x00\x00\x00\x00\x00\x00\x00\x00\x00\x00\x00\x00\xe0?\x00\x00\x00\x00\x00\x00\xe0?\x00\x00\x00\x00\x00\x00\xe0?\x00\x00\x00\x00\x00\x00\xe8?\x00\x00\x00\x00\x00\x00\xe0?\x00\x00\x00\x00\x00\x00\xe0?\x00\x00\x00\x00\x00\x00\xe0?\x00\x00\x00\x00\x00\x00\xe0?\x00\x00\x00\x00\x00\x00\xe0?\x00\x00\x00\x00\x00\x00\xe0?\x00\x00\x00\x00\x00\x00\xe0?\x00\x00\x00\x00\x00\x00\xe0?\x00\x00\x00\x00\x00\x00$@\x00\x00\x00\x00\x00\x001@\x00\x00\x00\x00\x00\x00&@\x00\x00\x00\x00\x00\x00&@\x00\x00\x00\x00\x00\x00$@\x00\x00\x00\x00\x00\x00,@\x00\x00\x00\x00\x00\x000@\x00\x00\x00\x00\x00\x00*@\x00\x00\x00\x00\x00\x00,@\x00\x00\x00\x00\x00\x001@\x00\x00\x00\x00\x00\x001@\x00\x00\x00\x00\x00\x000@\x00\x00\x00\x00\x00\x001@\x00\x00\x00\x00\x00\x00"@\x00\x00\x00\x00\x00\x00.@\x00\x00\x00\x00\x00\x00$@\x00\x00\x00\x00\x00\x001@\x00\x00\x00\x00\x00\x00&@\x00\x00\x00\x00\x00\x00&@\x00\x00\x00\x00\x00\x00$@\x00\x00\x00\x00\x00\x00,@\x00\x00\x00\x00\x00\x000@\x00\x00\x00\x00\x00\x00*@\x00\x00\x00\x00\x00\x00,@\x00\x00\x00\x00\x00\x001@\x00\x00\x00\x00\x00\x001@\x00\x00\x00\x00\x00\x000@\x00\x00\x00\x00\x00\x001@\x00\x00\x00\x00\x00\x00"@\x00\x00\x00\x00\x00\x00.@\x00\x00\x00\x00\x00\x00$@\x00\x00\x00\x00\x00\x00$@\x00\x00\x00\x00\x00\x00&@\x00\x00\x00\x00\x00\x00&@\x00\x00\x00\x00\x00\x00$@\x00\x00\x00\x00\x00\x00,@\x00\x00\x00\x00\x00\x000@\x00\x00\x00\x00\x00\x00*@\x00\x00\x00\x00\x00\x00,@\x00\x00\x00\x00\x00\x001@\x00\x00\x00\x00\x00\x001@\x00\x00\x00\x00\x00\x000@\x00\x00\x00\x00\x00\x001@\x00\x00\x00\x00\x00\x00"@\x00\x00\x00\x00\x00\x00.@\x00\x00\x00\x00\x00\x00$@\x00\x00\x00\x00\x00\x00$@\x00\x00\x00\x00\x00\x001@\x00\x00\x00\x00\x00\x00&@\x00\x00\x00\x00\x00\x00$@\x00\x00\x00\x00\x00\x00,@\x00\x00\x00\x00\x00\x000@\x00\x00\x00\x00\x00\x00*@\x00\x00\x00\x00\x00\x00,@\x00\x00\x00\x00\x00\x001@\x00\x00\x00\x00\x00\x001@\x00\x00\x00\x00\x00\x000@\x00\x00\x00\x00\x00\x001@\x00\x00\x00\x00\x00\x00"@\x00\x00\x00\x00\x00\x00.@\x00\x00\x00\x00\x00\x00$@\x00\x00\x00\x00\x00\x00$@\x00\x00\x00\x00\x00\x001@\x00\x00\x00\x00\x00\x00&@\x00\x00\x00\x00\x00\x00$@\x00\x00\x00\x00\x00\x00,@\x00\x00\x00\x00\x00\x000@\x00\x00\x00\x00\x00\x00*@\x00\x00\x00\x00\x00\x00,@\x00\x00\x00\x00\x00\x001@\x00\x00\x00\x00\x00\x001@\x00\x00\x00\x00\x00\x000@\x00\x00\x00\x00\x00\x001@\x00\x00\x00\x00\x00\x00"@\x00\x00\x00\x00\x00\x00.@\x00\x00\x00\x00\x00\x00$@\x00\x00\x00\x00\x00\x00$@\x00\x00\x00\x00\x00\x001@\x00\x00\x00\x00\x00\x00&@\x00\x00\x00\x00\x00\x00&@\x00\x00\x00\x00\x00\x00,@\x00\x00\x00\x00\x00\x000@\x00\x00\x00\x00\x00\x00*@\x00\x00\x00\x00\x00\x00,@\x00\x00\x00\x00\x00\x001@\x00\x00\x00\x00\x00\x001@\x00\x00\x00\x00\x00\x000@\x00\x00\x00\x00\x00\x001@\x00\x00\x00\x00\x00\x00"@\x00\x00\x00\x00\x00\x00.@\x00\x00\x00\x00\x00\x00$@\x00\x00\x00\x00\x00\x00$@\x00\x00\x00\x00\x00\x001@\x00\x00\x00\x00\x00\x00&@\x00\x00\x00\x00\x00\x00&@\x00\x00\x00\x00\x00\x00$@\x00\x00\x00\x00\x00\x000@\x00\x00\x00\x00\x00\x00*@\x00\x00\x00\x00\x00\x00,@\x00\x00\x00\x00\x00\x001@\x00\x00\x00\x00\x00\x001@\x00\x00\x00\x00\x00\x000@\x00\x00\x00\x00\x00\x001@\x00\x00\x00\x00\x00\x00"@\x00\x00\x00\x00\x00\x00.@\x00\x00\x00\x00\x00\x00$@\x00\x00\x00\x00\x00\x00$@\x00\x00\x00\x00\x00\x001@\x00\x00\x00\x00\x00\x00&@\x00\x00\x00\x00\x00\x00&@\x00\x00\x00\x00\x00\x00$@\x00\x00\x00\x00\x00\x00,@\x00\x00\x00\x00\x00\x00*@\x00\x00\x00\x00\x00\x00,@\x00\x00\x00\x00\x00\x001@\x00\x00\x00\x00\x00\x001@\x00\x00\x00\x00\x00\x000@\x00\x00\x00\x00\x00\x001@\x00\x00\x00\x00\x00\x00"@\x00\x00\x00\x00\x00\x00.@\x00\x00\x00\x00\x00\x00$@\x00\x00\x00\x00\x00\x00$@\x00\x00\x00\x00\x00\x001@\x00\x00\x00\x00\x00\x00&@\x00\x00\x00\x00\x00\x00&@\x00\x00\x00\x00\x00\x00$@\x00\x00\x00\x00\x00\x00,@\x00\x00\x00\x00\x00\x000@\x00\x00\x00\x00\x00\x00,@\x00\x00\x00\x00\x00\x001@\x00\x00\x00\x00\x00\x001@\x00\x00\x00\x00\x00\x000@\x00\x00\x00\x00\x00\x001@\x00\x00\x00\x00\x00\x00"@\x00\x00\x00\x00\x00\x00.@\x00\x00\x00\x00\x00\x00$@\x00\x00\x00\x00\x00\x00$@\x00\x00\x00\x00\x00\x001@\x00\x00\x00\x00\x00\x00&@\x00\x00\x00\x00\x00\x00&@\x00\x00\x00\x00\x00\x00$@\x00\x00\x00\x00\x00\x00,@\x00\x00\x00\x00\x00\x000@\x00\x00\x00\x00\x00\x00*@\x00\x00\x00\x00\x00\x001@\x00\x00\x00\x00\x00\x001@\x00\x00\x00\x00\x00\x000@\x00\x00\x00\x00\x00\x001@\x00\x00\x00\x00\x00\x00"@\x00\x00\x00\x00\x00\x00.@\x00\x00\x00\x00\x00\x00$@\x00\x00\x00\x00\x00\x00$@\x00\x00\x00\x00\x00\x001@\x00\x00\x00\x00\x00\x00&@\x00\x00\x00\x00\x00\x00&@\x00\x00\x00\x00\x00\x00$@\x00\x00\x00\x00\x00\x00,@\x00\x00\x00\x00\x00\x000@\x00\x00\x00\x00\x00\x00*@\x00\x00\x00\x00\x00\x00,@\x00\x00\x00\x00\x00\x001@\x00\x00\x00\x00\x00\x000@\x00\x00\x00\x00\x00\x001@\x00\x00\x00\x00\x00\x00"@\x00\x00\x00\x00\x00\x00.@\x00\x00\x00\x00\x00\x00$@\x00\x00\x00\x00\x00\x00$@\x00\x00\x00\x00\x00\x001@\x00\x00\x00\x00\x00\x00&@\x00\x00\x00\x00\x00\x00&@\x00\x00\x00\x00\x00\x00$@\x00\x00\x00\x00\x00\x00,@\x00\x00\x00\x00\x00\x000@\x00\x00\x00\x00\x00\x00*@\x00\x00\x00\x00\x00\x00,@\x00\x00\x00\x00\x00\x001@\x00\x00\x00\x00\x00\x000@\x00\x00\x00\x00\x00\x001@\x00\x00\x00\x00\x00\x00"@\x00\x00\x00\x00\x00\x00.@\x00\x00\x00\x00\x00\x00$@\x00\x00\x00\x00\x00\x00$@\x00\x00\x00\x00\x00\x001@\x00\x00\x00\x00\x00\x00&@\x00\x00\x00\x00\x00\x00&@\x00\x00\x00\x00\x00\x00$@\x00\x00\x00\x00\x00\x00,@\x00\x00\x00\x00\x00\x000@\x00\x00\x00\x00\x00\x00*@\x00\x00\x00\x00\x00\x00,@\x00\x00\x00\x00\x00\x001@\x00\x00\x00\x00\x00\x001@\x00\x00\x00\x00\x00\x001@\x00\x00\x00\x00\x00\x00"@\x00\x00\x00\x00\x00\x00.@\x00\x00\x00\x00\x00\x00$@\x00\x00\x00\x00\x00\x00$@\x00\x00\x00\x00\x00\x001@\x00\x00\x00\x00\x00\x00&@\x00\x00\x00\x00\x00\x00&@\x00\x00\x00\x00\x00\x00$@\x00\x00\x00\x00\x00\x00,@\x00\x00\x00\x00\x00\x000@\x00\x00\x00\x00\x00\x00*@\x00\x00\x00\x00\x00\x00,@\x00\x00\x00\x00\x00\x001@\x00\x00\x00\x00\x00\x001@\x00\x00\x00\x00\x00\x000@\x00\x00\x00\x00\x00\x00"@\x00\x00\x00\x00\x00\x00.@\x00\x00\x00\x00\x00\x00$@\x00\x00\x00\x00\x00\x00$@\x00\x00\x00\x00\x00\x001@\x00\x00\x00\x00\x00\x00&@\x00\x00\x00\x00\x00\x00&@\x00\x00\x00\x00\x00\x00$@\x00\x00\x00\x00\x00\x00,@\x00\x00\x00\x00\x00\x000@\x00\x00\x00\x00\x00\x00*@\x00\x00\x00\x00\x00\x00,@\x00\x00\x00\x00\x00\x001@\x00\x00\x00\x00\x00\x001@\x00\x00\x00\x00\x00\x000@\x00\x00\x00\x00\x00\x001@\x00\x00\x00\x00\x00\x00.@\x00\x00\x00\x00\x00\x00$@\x00\x00\x00\x00\x00\x00$@\x00\x00\x00\x00\x00\x001@\x00\x00\x00\x00\x00\x00&@\x00\x00\x00\x00\x00\x00&@\x00\x00\x00\x00\x00\x00$@\x00\x00\x00\x00\x00\x00,@\x00\x00\x00\x00\x00\x000@\x00\x00\x00\x00\x00\x00*@\x00\x00\x00\x00\x00\x00,@\x00\x00\x00\x00\x00\x001@\x00\x00\x00\x00\x00\x001@\x00\x00\x00\x00\x00\x000@\x00\x00\x00\x00\x00\x001@\x00\x00\x00\x00\x00\x00"@\x00\x00\x00\x00\x00\x00\x08\xc0\x00\x00\x00\x00\x00\x00\x00\x80\x00\x00\x00\x00\x00\x00\x00\xc0\x00\x00\x00\x00\x00\x00\xf0\xbf\x00\x00\x00\x00\x00\x00\x08\xc0\x00\x00\x00\x00\x00\x00\x00\xc0\x00\x00\x00\x00\x00\x00\xf0\xbf\x00\x00\x00\x00\x00\x00\x00\xc0\x00\x00\x00\x00\x00\x00\x00\xc0\x00\x00\x00\x00\x00\x00\x00\xc0\x00\x00\x00\x00\x00\x00\xf0\xbf\x00\x00\x00\x00\x00\x00\x00\xc0\x00\x00\x00\x00\x00\x00\x1c\xc0\x00\x00\x00\x00\x00\x00\x08\xc0\x00\x00\x00\x00\x00\x00\x14\xc0\x00\x00\x00\x00\x00\x00\x08\xc0\x00\x00\x00\x00\x00\x00\x00\x80\x00\x00\x00\x00\x00\x00\x00\xc0\x00\x00\x00\x00\x00\x00\xf0\xbf\x00\x00\x00\x00\x00\x00\x08\xc0\x00\x00\x00\x00\x00\x00\x00\xc0\x00\x00\x00\x00\x00\x00\xf0\xbf\x00\x00\x00\x00\x00\x00\x00\xc0\x00\x00\x00\x00\x00\x00\x00\xc0\x00\x00\x00\x00\x00\x00\x00\xc0\x00\x00\x00\x00\x00\x00\xf0\xbf\x00\x00\x00\x00\x00\x00\x00\xc0\x00\x00\x00\x00\x00\x00\x1c\xc0\x00\x00\x00\x00\x00\x00\x08\xc0\x00\x00\x00\x00\x00\x00\x14\xc0\x00\x00\x00\x00\x00\x00\x08\xc0\x00\x00\x00\x00\x00\x00\x08\xc0\x00\x00\x00\x00\x00\x00\x00\xc0\x00\x00\x00\x00\x00\x00\xf0\xbf\x00\x00\x00\x00\x00\x00\x08\xc0\x00\x00\x00\x00\x00\x00\x00\xc0\x00\x00\x00\x00\x00\x00\xf0\xbf\x00\x00\x00\x00\x00\x00\x00\xc0\x00\x00\x00\x00\x00\x00\x00\xc0\x00\x00\x00\x00\x00\x00\x00\xc0\x00\x00\x00\x00\x00\x00\xf0\xbf\x00\x00\x00\x00\x00\x00\x00\xc0\x00\x00\x00\x00\x00\x00\x1c\xc0\x00\x00\x00\x00\x00\x00\x08\xc0\x00\x00\x00\x00\x00\x00\x14\xc0\x00\x00\x00\x00\x00\x00\x08\xc0\x00\x00\x00\x00\x00\x00\x08\xc0\x00\x00\x00\x00\x00\x00\x00\x80\x00\x00\x00\x00\x00\x00\xf0\xbf\x00\x00\x00\x00\x00\x00\x08\xc0\x00\x00\x00\x00\x00\x00\x00\xc0\x00\x00\x00\x00\x00\x00\xf0\xbf\x00\x00\x00\x00\x00\x00\x00\xc0\x00\x00\x00\x00\x00\x00\x00\xc0\x00\x00\x00\x00\x00\x00\x00\xc0\x00\x00\x00\x00\x00\x00\xf0\xbf\x00\x00\x00\x00\x00\x00\x00\xc0\x00\x00\x00\x00\x00\x00\x1c\xc0\x00\x00\x00\x00\x00\x00\x08\xc0\x00\x00\x00\x00\x00\x00\x14\xc0\x00\x00\x00\x00\x00\x00\x08\xc0\x00\x00\x00\x00\x00\x00\x08\xc0\x00\x00\x00\x00\x00\x00\x00\x80\x00\x00\x00\x00\x00\x00\x00\xc0\x00\x00\x00\x00\x00\x00\x08\xc0\x00\x00\x00\x00\x00\x00\x00\xc0\x00\x00\x00\x00\x00\x00\xf0\xbf\x00\x00\x00\x00\x00\x00\x00\xc0\x00\x00\x00\x00\x00\x00\x00\xc0\x00\x00\x00\x00\x00\x00\x00\xc0\x00\x00\x00\x00\x00\x00\xf0\xbf\x00\x00\x00\x00\x00\x00\x00\xc0\x00\x00\x00\x00\x00\x00\x1c\xc0\x00\x00\x00\x00\x00\x00\x08\xc0\x00\x00\x00\x00\x00\x00\x14\xc0\x00\x00\x00\x00\x00\x00\x08\xc0\x00\x00\x00\x00\x00\x00\x08\xc0\x00\x00\x00\x00\x00\x00\x00\x80\x00\x00\x00\x00\x00\x00\x00\xc0\x00\x00\x00\x00\x00\x00\xf0\xbf\x00\x00\x00\x00\x00\x00\x00\xc0\x00\x00\x00\x00\x00\x00\xf0\xbf\x00\x00\x00\x00\x00\x00\x00\xc0\x00\x00\x00\x00\x00\x00\x00\xc0\x00\x00\x00\x00\x00\x00\x00\xc0\x00\x00\x00\x00\x00\x00\xf0\xbf\x00\x00\x00\x00\x00\x00\x00\xc0\x00\x00\x00\x00\x00\x00\x1c\xc0\x00\x00\x00\x00\x00\x00\x08\xc0\x00\x00\x00\x00\x00\x00\x14\xc0\x00\x00\x00\x00\x00\x00\x08\xc0\x00\x00\x00\x00\x00\x00\x08\xc0\x00\x00\x00\x00\x00\x00\x00\x80\x00\x00\x00\x00\x00\x00\x00\xc0\x00\x00\x00\x00\x00\x00\xf0\xbf\x00\x00\x00\x00\x00\x00\x08\xc0\x00\x00\x00\x00\x00\x00\xf0\xbf\x00\x00\x00\x00\x00\x00\x00\xc0\x00\x00\x00\x00\x00\x00\x00\xc0\x00\x00\x00\x00\x00\x00\x00\xc0\x00\x00\x00\x00\x00\x00\xf0\xbf\x00\x00\x00\x00\x00\x00\x00\xc0\x00\x00\x00\x00\x00\x00\x1c\xc0\x00\x00\x00\x00\x00\x00\x08\xc0\x00\x00\x00\x00\x00\x00\x14\xc0\x00\x00\x00\x00\x00\x00\x08\xc0\x00\x00\x00\x00\x00\x00\x08\xc0\x00\x00\x00\x00\x00\x00\x00\x80\x00\x00\x00\x00\x00\x00\x00\xc0\x00\x00\x00\x00\x00\x00\xf0\xbf\x00\x00\x00\x00\x00\x00\x08\xc0\x00\x00\x00\x00\x00\x00\x00\xc0\x00\x00\x00\x00\x00\x00\x00\xc0\x00\x00\x00\x00\x00\x00\x00\xc0\x00\x00\x00\x00\x00\x00\x00\xc0\x00\x00\x00\x00\x00\x00\xf0\xbf\x00\x00\x00\x00\x00\x00\x00\xc0\x00\x00\x00\x00\x00\x00\x1c\xc0\x00\x00\x00\x00\x00\x00\x08\xc0\x00\x00\x00\x00\x00\x00\x14\xc0\x00\x00\x00\x00\x00\x00\x08\xc0\x00\x00\x00\x00\x00\x00\x08\xc0\x00\x00\x00\x00\x00\x00\x00\x80\x00\x00\x00\x00\x00\x00\x00\xc0\x00\x00\x00\x00\x00\x00\xf0\xbf\x00\x00\x00\x00\x00\x00\x08\xc0\x00\x00\x00\x00\x00\x00\x00\xc0\x00\x00\x00\x00\x00\x00\xf0\xbf\x00\x00\x00\x00\x00\x00\x00\xc0\x00\x00\x00\x00\x00\x00\x00\xc0\x00\x00\x00\x00\x00\x00\xf0\xbf\x00\x00\x00\x00\x00\x00\x00\xc0\x00\x00\x00\x00\x00\x00\x1c\xc0\x00\x00\x00\x00\x00\x00\x08\xc0\x00\x00\x00\x00\x00\x00\x14\xc0\x00\x00\x00\x00\x00\x00\x08\xc0\x00\x00\x00\x00\x00\x00\x08\xc0\x00\x00\x00\x00\x00\x00\x00\x80\x00\x00\x00\x00\x00\x00\x00\xc0\x00\x00\x00\x00\x00\x00\xf0\xbf\x00\x00\x00\x00\x00\x00\x08\xc0\x00\x00\x00\x00\x00\x00\x00\xc0\x00\x00\x00\x00\x00\x00\xf0\xbf\x00\x00\x00\x00\x00\x00\x00\xc0\x00\x00\x00\x00\x00\x00\x00\xc0\x00\x00\x00\x00\x00\x00\xf0\xbf\x00\x00\x00\x00\x00\x00\x00\xc0\x00\x00\x00\x00\x00\x00\x1c\xc0\x00\x00\x00\x00\x00\x00\x08\xc0\x00\x00\x00\x00\x00\x00\x14\xc0\x00\x00\x00\x00\x00\x00\x08\xc0\x00\x00\x00\x00\x00\x00\x08\xc0\x00\x00\x00\x00\x00\x00\x00\x80\x00\x00\x00\x00\x00\x00\x00\xc0\x00\x00\x00\x00\x00\x00\xf0\xbf\x00\x00\x00\x00\x00\x00\x08\xc0\x00\x00\x00\x00\x00\x00\x00\xc0\x00\x00\x00\x00\x00\x00\xf0\xbf\x00\x00\x00\x00\x00\x00\x00\xc0\x00\x00\x00\x00\x00\x00\x00\xc0\x00\x00\x00\x00\x00\x00\xf0\xbf\x00\x00\x00\x00\x00\x00\x00\xc0\x00\x00\x00\x00\x00\x00\x1c\xc0\x00\x00\x00\x00\x00\x00\x08\xc0\x00\x00\x00\x00\x00\x00\x14\xc0\x00\x00\x00\x00\x00\x00\x08\xc0\x00\x00\x00\x00\x00\x00\x08\xc0\x00\x00\x00\x00\x00\x00\x00\x80\x00\x00\x00\x00\x00\x00\x00\xc0\x00\x00\x00\x00\x00\x00\xf0\xbf\x00\x00\x00\x00\x00\x00\x08\xc0\x00\x00\x00\x00\x00\x00\x00\xc0\x00\x00\x00\x00\x00\x00\xf0\xbf\x00\x00\x00\x00\x00\x00\x00\xc0\x00\x00\x00\x00\x00\x00\x00\xc0\x00\x00\x00\x00\x00\x00\x00\xc0\x00\x00\x00\x00\x00\x00\x00\xc0\x00\x00\x00\x00\x00\x00\x1c\xc0\x00\x00\x00\x00\x00\x00\x08\xc0\x00\x00\x00\x00\x00\x00\x14\xc0\x00\x00\x00\x00\x00\x00\x08\xc0\x00\x00\x00\x00\x00\x00\x08\xc0\x00\x00\x00\x00\x00\x00\x00\x80\x00\x00\x00\x00\x00\x00\x00\xc0\x00\x00\x00\x00\x00\x00\xf0\xbf\x00\x00\x00\x00\x00\x00\x08\xc0\x00\x00\x00\x00\x00\x00\x00\xc0\x00\x00\x00\x00\x00\x00\xf0\xbf\x00\x00\x00\x00\x00\x00\x00\xc0\x00\x00\x00\x00\x00\x00\x00\xc0\x00\x00\x00\x00\x00\x00\x00\xc0\x00\x00\x00\x00\x00\x00\xf0\xbf\x00\x00\x00\x00\x00\x00\x1c\xc0\x00\x00\x00\x00\x00\x00\x08\xc0\x00\x00\x00\x00\x00\x00\x14\xc0\x00\x00\x00\x00\x00\x00\x08\xc0\x00\x00\x00\x00\x00\x00\x08\xc0\x00\x00\x00\x00\x00\x00\x00\x80\x00\x00\x00\x00\x00\x00\x00\xc0\x00\x00\x00\x00\x00\x00\xf0\xbf\x00\x00\x00\x00\x00\x00\x08\xc0\x00\x00\x00\x00\x00\x00\x00\xc0\x00\x00\x00\x00\x00\x00\xf0\xbf\x00\x00\x00\x00\x00\x00\x00\xc0\x00\x00\x00\x00\x00\x00\x00\xc0\x00\x00\x00\x00\x00\x00\x00\xc0\x00\x00\x00\x00\x00\x00\xf0\xbf\x00\x00\x00\x00\x00\x00\x00\xc0\x00\x00\x00\x00\x00\x00\x08\xc0\x00\x00\x00\x00\x00\x00\x14\xc0\x00\x00\x00\x00\x00\x00\x08\xc0\x00\x00\x00\x00\x00\x00\x08\xc0\x00\x00\x00\x00\x00\x00\x00\x80\x00\x00\x00\x00\x00\x00\x00\xc0\x00\x00\x00\x00\x00\x00\xf0\xbf\x00\x00\x00\x00\x00\x00\x08\xc0\x00\x00\x00\x00\x00\x00\x00\xc0\x00\x00\x00\x00\x00\x00\xf0\xbf\x00\x00\x00\x00\x00\x00\x00\xc0\x00\x00\x00\x00\x00\x00\x00\xc0\x00\x00\x00\x00\x00\x00\x00\xc0\x00\x00\x00\x00\x00\x00\xf0\xbf\x00\x00\x00\x00\x00\x00\x00\xc0\x00\x00\x00\x00\x00\x00\x1c\xc0\x00\x00\x00\x00\x00\x00\x14\xc0\x00\x00\x00\x00\x00\x00\x08\xc0\x00\x00\x00\x00\x00\x00\x08\xc0\x00\x00\x00\x00\x00\x00\x00\x80\x00\x00\x00\x00\x00\x00\x00\xc0\x00\x00\x00\x00\x00\x00\xf0\xbf\x00\x00\x00\x00\x00\x00\x08\xc0\x00\x00\x00\x00\x00\x00\x00\xc0\x00\x00\x00\x00\x00\x00\xf0\xbf\x00\x00\x00\x00\x00\x00\x00\xc0\x00\x00\x00\x00\x00\x00\x00\xc0\x00\x00\x00\x00\x00\x00\x00\xc0\x00\x00\x00\x00\x00\x00\xf0\xbf\x00\x00\x00\x00\x00\x00\x00\xc0\x00\x00\x00\x00\x00\x00\x1c\xc0\x00\x00\x00\x00\x00\x00\x08\xc0\x00\x00\x00\x00\x00\x00 @\x00\x00\x00\x00\x00\x00 @\x00\x00\x00\x00\x00\x00 @\x00\x00\x00\x00\x00\x00$@\x00\x00\x00\x00\x00\x00 @\x00\x00\x00\x00\x00\x00*@\x00\x00\x00\x00\x00\x00,@\x00\x00\x00\x00\x00\x00&@\x00\x00\x00\x00\x00\x00"@\x00\x00\x00\x00\x00\x00.@\x00\x00\x00\x00\x00\x00,@\x00\x00\x00\x00\x00\x00,@\x00\x00\x00\x00\x00\x00 @\x00\x00\x00\x00\x00\x00 @\x00\x00\x00\x00\x00\x00-@\x00\x00\x00\x00\x00\x00"@\x00\x00\x00\x00\x00\x00 @\x00\x00\x00\x00\x00\x00 @\x00\x00\x00\x00\x00\x00$@\x00\x00\x00\x00\x00\x00 @\x00\x00\x00\x00\x00\x00*@\x00\x00\x00\x00\x00\x00,@\x00\x00\x00\x00\x00\x00&@\x00\x00\x00\x00\x00\x00"@\x00\x00\x00\x00\x00\x00.@\x00\x00\x00\x00\x00\x00,@\x00\x00\x00\x00\x00\x00,@\x00\x00\x00\x00\x00\x00 @\x00\x00\x00\x00\x00\x00 @\x00\x00\x00\x00\x00\x00-@\x00\x00\x00\x00\x00\x00"@\x00\x00\x00\x00\x00\x00 @\x00\x00\x00\x00\x00\x00 @\x00\x00\x00\x00\x00\x00$@\x00\x00\x00\x00\x00\x00 @\x00\x00\x00\x00\x00\x00*@\x00\x00\x00\x00\x00\x00,@\x00\x00\x00\x00\x00\x00&@\x00\x00\x00\x00\x00\x00"@\x00\x00\x00\x00\x00\x00.@\x00\x00\x00\x00\x00\x00,@\x00\x00\x00\x00\x00\x00,@\x00\x00\x00\x00\x00\x00 @\x00\x00\x00\x00\x00\x00 @\x00\x00\x00\x00\x00\x00-@\x00\x00\x00\x00\x00\x00"@\x00\x00\x00\x00\x00\x00 @\x00\x00\x00\x00\x00\x00 @\x00\x00\x00\x00\x00\x00$@\x00\x00\x00\x00\x00\x00 @\x00\x00\x00\x00\x00\x00*@\x00\x00\x00\x00\x00\x00,@\x00\x00\x00\x00\x00\x00&@\x00\x00\x00\x00\x00\x00"@\x00\x00\x00\x00\x00\x00.@\x00\x00\x00\x00\x00\x00,@\x00\x00\x00\x00\x00\x00,@\x00\x00\x00\x00\x00\x00 @\x00\x00\x00\x00\x00\x00 @\x00\x00\x00\x00\x00\x00-@\x00\x00\x00\x00\x00\x00"@\x00\x00\x00\x00\x00\x00 @\x00\x00\x00\x00\x00\x00 @\x00\x00\x00\x00\x00\x00 @\x00\x00\x00\x00\x00\x00 @\x00\x00\x00\x00\x00\x00*@\x00\x00\x00\x00\x00\x00,@\x00\x00\x00\x00\x00\x00&@\x00\x00\x00\x00\x00\x00"@\x00\x00\x00\x00\x00\x00.@\x00\x00\x00\x00\x00\x00,@\x00\x00\x00\x00\x00\x00,@\x00\x00\x00\x00\x00\x00 @\x00\x00\x00\x00\x00\x00 @\x00\x00\x00\x00\x00\x00-@\x00\x00\x00\x00\x00\x00"@\x00\x00\x00\x00\x00\x00 @\x00\x00\x00\x00\x00\x00 @\x00\x00\x00\x00\x00\x00 @\x00\x00\x00\x00\x00\x00$@\x00\x00\x00\x00\x00\x00*@\x00\x00\x00\x00\x00\x00,@\x00\x00\x00\x00\x00\x00&@\x00\x00\x00\x00\x00\x00"@\x00\x00\x00\x00\x00\x00.@\x00\x00\x00\x00\x00\x00,@\x00\x00\x00\x00\x00\x00,@\x00\x00\x00\x00\x00\x00 @\x00\x00\x00\x00\x00\x00 @\x00\x00\x00\x00\x00\x00-@\x00\x00\x00\x00\x00\x00"@\x00\x00\x00\x00\x00\x00 @\x00\x00\x00\x00\x00\x00 @\x00\x00\x00\x00\x00\x00 @\x00\x00\x00\x00\x00\x00$@\x00\x00\x00\x00\x00\x00 @\x00\x00\x00\x00\x00\x00,@\x00\x00\x00\x00\x00\x00&@\x00\x00\x00\x00\x00\x00"@\x00\x00\x00\x00\x00\x00.@\x00\x00\x00\x00\x00\x00,@\x00\x00\x00\x00\x00\x00,@\x00\x00\x00\x00\x00\x00 @\x00\x00\x00\x00\x00\x00 @\x00\x00\x00\x00\x00\x00-@\x00\x00\x00\x00\x00\x00"@\x00\x00\x00\x00\x00\x00 @\x00\x00\x00\x00\x00\x00 @\x00\x00\x00\x00\x00\x00 @\x00\x00\x00\x00\x00\x00$@\x00\x00\x00\x00\x00\x00 @\x00\x00\x00\x00\x00\x00*@\x00\x00\x00\x00\x00\x00&@\x00\x00\x00\x00\x00\x00"@\x00\x00\x00\x00\x00\x00.@\x00\x00\x00\x00\x00\x00,@\x00\x00\x00\x00\x00\x00,@\x00\x00\x00\x00\x00\x00 @\x00\x00\x00\x00\x00\x00 @\x00\x00\x00\x00\x00\x00-@\x00\x00\x00\x00\x00\x00"@\x00\x00\x00\x00\x00\x00 @\x00\x00\x00\x00\x00\x00 @\x00\x00\x00\x00\x00\x00 @\x00\x00\x00\x00\x00\x00$@\x00\x00\x00\x00\x00\x00 @\x00\x00\x00\x00\x00\x00*@\x00\x00\x00\x00\x00\x00,@\x00\x00\x00\x00\x00\x00"@\x00\x00\x00\x00\x00\x00.@\x00\x00\x00\x00\x00\x00,@\x00\x00\x00\x00\x00\x00,@\x00\x00\x00\x00\x00\x00 @\x00\x00\x00\x00\x00\x00 @\x00\x00\x00\x00\x00\x00-@\x00\x00\x00\x00\x00\x00"@\x00\x00\x00\x00\x00\x00 @\x00\x00\x00\x00\x00\x00 @\x00\x00\x00\x00\x00\x00 @\x00\x00\x00\x00\x00\x00$@\x00\x00\x00\x00\x00\x00 @\x00\x00\x00\x00\x00\x00*@\x00\x00\x00\x00\x00\x00,@\x00\x00\x00\x00\x00\x00&@\x00\x00\x00\x00\x00\x00.@\x00\x00\x00\x00\x00\x00,@\x00\x00\x00\x00\x00\x00,@\x00\x00\x00\x00\x00\x00 @\x00\x00\x00\x00\x00\x00 @\x00\x00\x00\x00\x00\x00-@\x00\x00\x00\x00\x00\x00"@\x00\x00\x00\x00\x00\x00 @\x00\x00\x00\x00\x00\x00 @\x00\x00\x00\x00\x00\x00 @\x00\x00\x00\x00\x00\x00$@\x00\x00\x00\x00\x00\x00 @\x00\x00\x00\x00\x00\x00*@\x00\x00\x00\x00\x00\x00,@\x00\x00\x00\x00\x00\x00&@\x00\x00\x00\x00\x00\x00"@\x00\x00\x00\x00\x00\x00,@\x00\x00\x00\x00\x00\x00,@\x00\x00\x00\x00\x00\x00 @\x00\x00\x00\x00\x00\x00 @\x00\x00\x00\x00\x00\x00-@\x00\x00\x00\x00\x00\x00"@\x00\x00\x00\x00\x00\x00 @\x00\x00\x00\x00\x00\x00 @\x00\x00\x00\x00\x00\x00 @\x00\x00\x00\x00\x00\x00$@\x00\x00\x00\x00\x00\x00 @\x00\x00\x00\x00\x00\x00*@\x00\x00\x00\x00\x00\x00,@\x00\x00\x00\x00\x00\x00&@\x00\x00\x00\x00\x00\x00"@\x00\x00\x00\x00\x00\x00.@\x00\x00\x00\x00\x00\x00,@\x00\x00\x00\x00\x00\x00 @\x00\x00\x00\x00\x00\x00 @\x00\x00\x00\x00\x00\x00-@\x00\x00\x00\x00\x00\x00"@\x00\x00\x00\x00\x00\x00 @\x00\x00\x00\x00\x00\x00 @\x00\x00\x00\x00\x00\x00 @\x00\x00\x00\x00\x00\x00$@\x00\x00\x00\x00\x00\x00 @\x00\x00\x00\x00\x00\x00*@\x00\x00\x00\x00\x00\x00,@\x00\x00\x00\x00\x00\x00&@\x00\x00\x00\x00\x00\x00"@\x00\x00\x00\x00\x00\x00.@\x00\x00\x00\x00\x00\x00,@\x00\x00\x00\x00\x00\x00 @\x00\x00\x00\x00\x00\x00 @\x00\x00\x00\x00\x00\x00-@\x00\x00\x00\x00\x00\x00"@\x00\x00\x00\x00\x00\x00 @\x00\x00\x00\x00\x00\x00 @\x00\x00\x00\x00\x00\x00 @\x00\x00\x00\x00\x00\x00$@\x00\x00\x00\x00\x00\x00 @\x00\x00\x00\x00\x00\x00*@\x00\x00\x00\x00\x00\x00,@\x00\x00\x00\x00\x00\x00&@\x00\x00\x00\x00\x00\x00"@\x00\x00\x00\x00\x00\x00.@\x00\x00\x00\x00\x00\x00,@\x00\x00\x00\x00\x00\x00,@\x00\x00\x00\x00\x00\x00 @\x00\x00\x00\x00\x00\x00-@\x00\x00\x00\x00\x00\x00"@\x00\x00\x00\x00\x00\x00 @\x00\x00\x00\x00\x00\x00 @\x00\x00\x00\x00\x00\x00 @\x00\x00\x00\x00\x00\x00$@\x00\x00\x00\x00\x00\x00 @\x00\x00\x00\x00\x00\x00*@\x00\x00\x00\x00\x00\x00,@\x00\x00\x00\x00\x00\x00&@\x00\x00\x00\x00\x00\x00"@\x00\x00\x00\x00\x00\x00.@\x00\x00\x00\x00\x00\x00,@\x00\x00\x00\x00\x00\x00,@\x00\x00\x00\x00\x00\x00 @\x00\x00\x00\x00\x00\x00-@\x00\x00\x00\x00\x00\x00"@\x00\x00\x00\x00\x00\x00 @\x00\x00\x00\x00\x00\x00 @\x00\x00\x00\x00\x00\x00 @\x00\x00\x00\x00\x00\x00$@\x00\x00\x00\x00\x00\x00 @\x00\x00\x00\x00\x00\x00*@\x00\x00\x00\x00\x00\x00,@\x00\x00\x00\x00\x00\x00&@\x00\x00\x00\x00\x00\x00"@\x00\x00\x00\x00\x00\x00.@\x00\x00\x00\x00\x00\x00,@\x00\x00\x00\x00\x00\x00,@\x00\x00\x00\x00\x00\x00 @\x00\x00\x00\x00\x00\x00 @\xd9\xfc\x9b4\xa5\xcf\xc0?`\xdf\xf9\x8fME\xbe?Krk\x18\xddJ\xc5?Ai3\x8d\xf0\xe6\xc4?\x92\xd1\xb6ew\xb7\xc4?1\x08\x12\xebz\xb2\xc9?P\xb3\xa5\xa9\x89\xc4\xc2?\xd9`T\x9b\x05e\xd6?"\xb5\xce[\xdd\xdc\xc5?UBMx\xf9\xf1\xc0?\n<S\xcc\xa4\x8f\xe1?\xfb\x8chOI\x08\xc3?ZU\x04\xb5\xe2\xa1\xe2?\x02\xc4n\xb0\x17\x1a\xc5?v\x11\x88\xd6\x11\xd4\xc5?J\x08Nt\xd7\x8f\xc4?\x0e&Jj;d\xa0?\x84\x8c!pK\xde\xab?\\hAC\x99N\xaa?\x9d\tO\xa5\xb4\x90\xa9?Ns|9\x96\xec\xb1?1\xd5\x97\x1f\x1bl\x96?\xe2/\xb0N\xdc\xc1\xcc?\xde\x97\xae}L&\xae?\xed=*\xb6\xb0\xed\xa0?\xcb\xc4\x93w3\x06\xe5?\x9fZZ\x1d"\xc5\xc8?\xcba\x0c\xf6\xad?\xdd?c\xd3.\xd05\x1b\xab?~\x85K\r\x82d\xa9?z\xe2\x9a|&\x13\xc3?k\x18b\x97T\xec\x9c?]L\xe9\xdd:*\xb5?I:y\xc7ab\xb4?\xe9\n\x80xo\x03\xb4?\xcbVe\x93\x01\x9c\xb7?\xcd\xf6|\xdb7\xac\xa9?529\xc7\x12\x17\xd0?\t\xd2\xafd;N\xb6?b\x90*<\xc0>\xab?U\xfb\xa69\x07\xa7\xe4?\xa2\xd1\\q1\xe2\xc8?\x10|\xed\x95\xd2\xf5\xde?\xcd\xef\xef\r\xb0\xc8\xb4?\xdaH~,V\xed\xb3?\xe8\xdeKl@#\xc9?9\x84\x04bY\x17\xac?R\r\xda+\xf3A\xb5?\x85B\x02\xce"\xfbh?;\x17\x94V\xb6lr?\nGo}=\x03\xbd?\x00:\xd3\x1c\x06\xde\xa6?Y`{+m\xfa\xc9?\xcfZhl\x08@r?\xbf \xfbuq \xa3?r:\x93\xb5\r+\xe6?c+\x06\x14W\x92\xce?\xa203\xa7\xa1\x04\xdc?($W\xfe\xb3bX?1\xd2\r\x8080\xa4?\xde\xd5\x13\xe1S\xbf\xc8?\x12`$5\xa7\x87\xaa?@\xfbi\x15\x1az\xb4?\x85B\x02\xce"\xfbh?\xe1\xd7K\xbe\x93\xbcW?\xf64\xfffd;\xbc?\xd7\x15\xf3\xefSN\xa5?ci\xb3\xb6Y^\xca?\x12|i\xd3\x99\xbd~?\x97\xfc\x1aI\xbf\x90\xa1?08\xc5\x92\x12\x12\xe6?Y"\xce\x88j.\xce?\'5\xcf\xec\x976\xdc?\xe2`\xad\x9d\x91\x93Y?\t\xae-S\x86\xa0\xa2?/>\x97\xb9\xda\x8f\xc8?S\x012\x97\xc2\xc9\xa9?\xdf\xcbp\xc6\'\x1b\xb4?;\x17\x94V\xb6lr?\xe1\xd7K\xbe\x93\xbcW?\x97\x05\x06\x18r\xdc\xbb?\x18\xb7\x00Ro\x90\xa4?\x14\x010\xde\xd2\x8d\xca?\x059~a_V\x82?\xd8\x9d(\xab\xda\xd2\xa0?C\x12\xe6H4\x06\xe6?\xaa\x8aQa\xf1\xfe\xcd?\xff\x80\x8d\x80TN\xdc?b\x9c\xfc\xad\x12\xa8h?KO;\xb5\xa1\xe2\xa1?\xd1brhf}\xcd?\xad\x9bh\xd9Pt\xb2?;\xc7G\xa7\x06\x1b\xb7?\x8a\xed\x19=\xcc\xb7\xbc?u\xdb\xa9&\xf3\xef\xbb?\x16\xac\xb0\xd7\x00\x91\xbb?X\r?\xc1\xc5~\xb3?\xf0\xd1iH\x9e\x1b\xcc?5s\xe0\xc3\xcc\xdb\xbd?\xd09\xfd\xb0I\x8e\xb8?m\xdb\x9c4\x97A\xe7?90%?\xd9v\xc9?\xd12\xe9\xf2\x8e\xec\xdc?\xf9\x90 mAV\xbc?\xf6G\xe0[\xcd\xd4\xb6?\xf8\xddq\\\x9f\xd8\xc6?\xbb\xca\x94x\xfc\xba\x9b?\x02\xe0\xe2!\x86Z\xac?\xc4\xf0\x06Qm"\xa7?\x9c\xcc&$\xbb\x92\xa5?\xddm4\x86\xd6\xd4\xa4?\x93\xcd\xb1\x90?\xd8\xb2?e\x0e\x03\x8d\x81\x05\xca?\x1e\xfc\x93^nj\xa9?S\x07\x0e\xae\x13r\x98?7\xba\x9cqe\x98\xe5?\xa4\x814\xa9\xc6e\xc9?\x0b\xd15\x95\x80\xe1\xdb?\xa37\x14\xb1W_\xa6?\x1f\xff-\r.\xe6\x9c?\xe5\xf8\x81c\x05P\xd8?\xd6O\xe3vZ\xcf\xcc?]>o"\xed\x8f\xce?\x17\x11\xac\xfeMf\xca?!\x1a\xe4\x89:\xca\xca?\xd0\xb1`\xb1\xb3\xf9\xca?Sj\x8aO\xe1\xdc\xcc?\x01\x00\x1df+!\xca?@\xceH\xbbM\xd4\xc9?\xdc\x02;\x97\x14\x89\xcc?P\xccA~\xe3\x97\xeb?\x81E\xf8\x86\xa1<\xd6?\xe0\xbcLW\xa7\xda\xd6?`\xbf\xa8f\x13\x97\xca?\xbb\xf4U\x0c3\xcc\xc8?\xbf!\xaf\xaf@\xb5\xc9?\x92\x8f\x91oZ_\xae?\xfe\x92\xa0\xb2\xf3e\xb6?\xcfZhl\x08@r?\x12|i\xd3\x99\xbd~?\x069~a_V\x82?\xb8\xcc5\x04>\'\xbe?ZE`*\x07&\xa9?\x83\x1d\x18\xe8lh\xc9?\x19,\x88\x83rh\xa5?(\x0bl\xc6\x8dO\xe6?:niWW$\xcf?7\x8f\x81\x85\xa1\xbb\xdb?\xd9#\xfek\xb5Xx?\x12\xde\x0b\xc1\xe9W\xa6?H\xfd\xbb_\x81\xbf\xc4?\xfa\x86\x8a\x80\xec\x13\xa1?JM\x90M\x00+\xab?\xbe \xfbuq \xa3?\x96\xfc\x1aI\xbf\x90\xa1?\xd7\x9d(\xab\xda\xd2\xa0?#As\xf9\xb2\xcb\xb8?G\xce\x05\xa3\xcd\xcd\x97?/\xc8cA;\xff\xcc?\x19,\x88\x83rh\xa5?\nBo\xf2\x1d\x12\xe5?\xe4\x82\xf1\xdf\xfe\xa9\xca?\xf1-fo]^\xdd?\x9dg\x08\xd6[]\xa2?k\x9dmnDE\xa5?"q\xf8\xee\x1e\xdd\xe0?\xfb\xfd\x9c8w\x08\xe5?\xb1:u\x9d7\x9d\xe4?U\xdb\x901E\'\xe6?\x13\xd9\xc2\x0eJ\x0e\xe6?(\xb3\xe3\xc4k\x02\xe6?\xd4\x80:\xa6,A\xe7?\x95k\xdfU\xb0\x85\xe5?\x87\xeb\x0cv\xfc\xa6\xeb?\x0b\xaciB\xc5K\xe6?XO\x89I\x0c\x11\xe5?\xb3\xb1w\xe9\x9c\x0c\xe4?\xdf\xd5c\xffX\x95\xf1?\xc4\xaf\x91\xd7\x13\x1b\xe6?#\x03\x18a\x92I\xe6?\xab\xb3\xe4\xf8\xfc\xd2\xc1?@\xbc\xb4\x08\x99\xaf\xc7?)\x93W\xfc\xa3V\xc7?\xefHl\x94\x03\xe5\xcc?\xe5?4\t\x17\x81\xcc?5\xa8\xb7\xe1\x9dQ\xcc? \\\x11\x1a\x17\x91\xc7?\xbf\x9a\xa7\x11\xb21\xc8?/\xbe\xdb\x8f\xe4;\xd5?\xc6\x8b\xcf\xd7\x03w\xcd?\xce\xe5\xa7\xac\xf6%\xc9?\x18\x1eu\xdb\x12c\xe4?\x05\x04H/R\r\xe2?\xa6\x9ao,>\xb4\xcc?\'v\xcf#\x84\xf3\xc9?w=\xc3"\xe5\x97\xe3?\xf6)v\x1drG\xdd?5!<s\xbb\'\xde?\xe5.\xf9\x0f\x8a6\xdc?j3\x95U\x80h\xdc?B\x7fS\xe9<\x80\xdc?1\xb7\xc9\x895N\xdd?\x08\x02\x13\x95Z\xf0\xdb?\x9c\xb6\x9b\xc2~\xdb\xd6?z\x8dG\xee\x89\xed\xdb?t\x03\xa2-O$\xdd?\xc1\xafI\x83\xca\x8c\xf1?\xc4c~43\x8e\xe2?\t\x86\xf7\xc3\xecN\xdc?\xb4 \xce\x96|i\xdb?\xa00O\x04{\xf2\xc8?\x19\xcb\x11\xc2CT\xab?\xc3\xb0\xe0[h\xe0\xb4?($W\xfe\xb3bX?\xe2`\xad\x9d\x91\x93Y?b\x9c\xfc\xad\x12\xa8h?y\xeau\xad\xb2\xa1\xbc?\xde\x80\xe0|\xf0\x1a\xa6?\xa2\x0ex\x932+\xca?\xd9#\xfek\xb5Xx?\x9eg\x08\xd6[]\xa2?\xe0\x0e\x94[\xdc\x1e\xe6?\x1b}\t\xac\x91a\xce?\xc6\x871[\x04\x1d\xdc?\x10\x19\x1b\xe0"m\xa3?\x13~h*u\xac\xc9?\x0f\xa4\xff\xe4\xb3D\xa9?\xb9\x04\x1a\xc9\xf1\xde\xb3?0\xd2\r\x8080\xa4?\x08\xae-S\x86\xa0\xa2?IO;\xb5\xa1\xe2\xa1?\x9c\xf5#c\xc6A\xb7?l\xc9\xccC\xef\x17\x9d?\x94\x8f\xa5\x98\x8b\xa6\xc8?\x10\xde\x0b\xc1\xe9W\xa6?l\x9dmnDE\xa5?<b\x1a\xe5ZM\xe6?\xac\x82\xe0\x86\x9b\xb1\xcb?@H\xc8\xdd\xb0Z\xdb?\x0f\x19\x1b\xe0"m\xa3?'
p61
tp62
bag19
(g20
(I0
tp63
g22
tp64
Rp65
(I1
(L1L
L240L
tp66
g29
I00
(lp67
(lp68
S'-97.6818670994 30.3686196746'
p69
aS'-97.6834268658 30.3661401417'
p70
aS'-97.6843512419 30.3646531778'
p71
aS'-97.6861654588 30.3614020498'
p72
aS'-97.6925624161 30.3513496902'
p73
aS'-97.6989397356 30.3412346184'
p74
aS'-97.7022554795 30.3360388887'
p75
aS'-97.7054674678 30.3302903024'
p76
aS'-97.7064246646 30.3256640712'
p77
aS'-97.7068934884 30.3224573089'
p78
aS'-97.7078154732 30.3159926631'
p79
aS'-97.7118253905 30.3074174779'
p80
aS'-97.7129234258 30.3057071988'
p81
aS'-97.7153875664 30.3018355315'
p82
aS'-97.7165874372 30.2999687183'
p83
aS'-97.7279378031 30.2823162006'
p84
aS'-97.7289909134 30.281075195'
p85
aS'-97.7299695947 30.2798904266'
p86
aS'-97.7304863866 30.2785587531'
p87
aS'-97.7321932751 30.2789749675'
p88
aS'-97.7345103072 30.2796387994'
p89
aS'-97.7357085718 30.2799766336'
p90
aS'-97.736774266 30.2802952692'
p91
aS'-97.7381073338 30.2806880693'
p92
aS'-97.7394388692 30.2810203169'
p93
aS'-97.7398943187 30.2811627884'
p94
aS'-97.7405080509 30.2813279893'
p95
aS'-97.7410170843 30.2814895561'
p96
aS'-97.7419244151 30.2817330505'
p97
aS'-97.7419907988 30.2806318905'
p98
aS'-97.7422873818 30.2797357745'
p99
aS'-97.7426023711 30.2788620329'
p100
aa(lp101
g69
ag70
ag71
ag72
ag73
ag74
ag75
ag76
ag77
ag78
ag79
ag80
ag81
ag82
aS'-97.7178834455 30.2977549731'
p102
aS'-97.7206729594 30.2932617543'
p103
aS'-97.721248893 30.2926424237'
p104
aS'-97.723455794 30.2892989157'
p105
aS'-97.7240877126 30.2882694521'
p106
aS'-97.7242978615 30.2879271313'
p107
aS'-97.7248649994 30.2870530613'
p108
aS'-97.7260336101 30.2870678199'
p109
aS'-97.7267426104 30.2871665682'
p110
aS'-97.7291359976 30.2883305478'
p111
aS'-97.729726337 30.2888741037'
p112
aS'-97.7303067603 30.2891110371'
p113
aS'-97.7332807887 30.2892029814'
p114
aS'-97.7346089749 30.2893161987'
p115
aS'-97.734458154 30.2900505648'
p116
aS'-97.7345303708 30.2904288274'
p117
aa(lp118
g69
ag70
ag71
ag72
ag73
ag74
ag75
ag76
ag77
ag78
ag79
ag80
ag81
ag82
ag102
ag103
aS'-97.7242888754 30.2876229237'
p119
aS'-97.725383941 30.2858851502'
p120
aS'-97.7274239489 30.2827974882'
p121
aS'-97.7293387071 30.2799298658'
p122
aS'-97.7315419656 30.2748367163'
p123
aS'-97.732384677 30.2721923942'
p124
aS'-97.7331483222 30.2700690845'
p125
aS'-97.7352877809 30.2642695922'
p126
aS'-97.7358829741 30.2626888793'
p127
aS'-97.7365291395 30.2618945318'
p128
aS'-97.7367666157 30.2612297186'
p129
aS'-97.737843586 30.2615235366'
p130
aS'-97.7387921561 30.2617823162'
p131
aS'-97.7410759071 30.2623951125'
p132
aS'-97.7421040156 30.2626909438'
p133
aS'-97.7432070236 30.263029535'
p134
aS'-97.7445671086 30.263381563'
p135
aS'-97.7451563752 30.2616992585'
p136
aS'-97.7461413542 30.2591118319'
p137
aS'-97.7468752495 30.2571436558'
p138
aS'-97.7486530833 30.2522729356'
p139
aS'-97.7487066872 30.2521640039'
p140
aS'-97.7491053942 30.2511159189'
p141
aS'-97.7495132752 30.2499910078'
p142
aS'-97.7495922416 30.24982208'
p143
aS'-97.7499370173 30.2489241733'
p144
aS'-97.7502704629 30.2479462779'
p145
aS'-97.750624593 30.2470238054'
p146
aa(lp147
g69
ag70
ag71
ag72
ag73
ag74
ag75
ag76
ag77
ag78
ag79
ag80
ag81
ag82
ag102
ag103
ag119
ag120
ag121
ag122
ag123
ag124
ag125
ag126
ag127
ag128
ag129
ag130
ag131
ag132
ag133
ag134
ag135
ag136
ag137
ag138
ag139
ag140
ag141
ag142
ag143
ag144
aa(lp148
g69
ag70
ag71
ag72
ag73
ag74
ag75
ag76
ag77
ag78
ag79
ag80
ag81
ag82
ag102
ag103
ag119
ag120
ag121
ag122
ag123
ag124
ag125
ag126
ag127
ag128
ag129
ag130
ag131
ag132
ag133
ag134
ag135
ag136
ag137
ag138
ag139
ag140
ag141
ag142
ag143
aa(lp149
g69
ag70
ag71
ag72
ag73
ag74
ag75
ag76
ag77
ag78
ag79
ag80
ag81
ag82
ag83
ag84
ag85
aS'-97.7313221736 30.2761407044'
p150
aS'-97.7315643143 30.2754677424'
p151
aS'-97.7317609291 30.274776639'
p152
aS'-97.733904098 30.2753480892'
p153
aS'-97.7348450029 30.2756176188'
p154
aS'-97.7360290076 30.2759419063'
p155
aS'-97.737108975 30.2762313172'
p156
aS'-97.7381938306 30.2765489267'
p157
aS'-97.7394971118 30.276917595'
p158
aS'-97.7408365522 30.277298257'
p159
aS'-97.741926268 30.2776045462'
p160
aS'-97.742990759 30.2778968946'
p161
aS'-97.7440566379 30.2782192414'
p162
aS'-97.7451441296 30.2785335717'
p163
aS'-97.7462295053 30.2788407539'
p164
aS'-97.747286824 30.2791463157'
p165
aS'-97.7491845478 30.2797238579'
p166
aS'-97.7498407734 30.2798490553'
p167
aS'-97.752355029 30.2801046464'
p168
aS'-97.7532603999 30.2802334687'
p169
aS'-97.7537114502 30.2803134252'
p170
aS'-97.7549405248 30.2811708802'
p171
aS'-97.7560426599 30.2820264027'
p172
aS'-97.7569569527 30.2825590999'
p173
aS'-97.7578163441 30.282774399'
p174
aS'-97.7590727671 30.2830746766'
p175
aS'-97.7602991564 30.2835152118'
p176
aS'-97.761863193 30.2846763869'
p177
aS'-97.761979453 30.2847410965'
p178
aS'-97.7624253371 30.2850481784'
p179
aS'-97.7625761394 30.2851677081'
p180
aS'-97.7630797076 30.2855341962'
p181
aS'-97.7633018284 30.2856448966'
p182
aS'-97.7646097927 30.286290907'
p183
aS'-97.7655444335 30.28674694'
p184
aS'-97.7661908814 30.2871064328'
p185
aS'-97.7673860396 30.2878069486'
p186
aS'-97.7685593338 30.2884960149'
p187
aS'-97.7686931987 30.2885867042'
p188
aS'-97.769832326 30.289250321'
p189
aS'-97.7714106511 30.2902032416'
p190
aS'-97.7720530291 30.2905983768'
p191
aS'-97.7754740981 30.2922178849'
p192
aS'-97.7761529524 30.292553219'
p193
aS'-97.7774107641 30.2931668795'
p194
aS'-97.7787257564 30.2937761655'
p195
aS'-97.7799657578 30.2943454392'
p196
aS'-97.7811360114 30.2949160622'
p197
aS'-97.7822966315 30.295491984'
p198
aS'-97.7838043382 30.2961270548'
p199
aa(lp200
g69
ag70
ag71
ag72
ag73
ag74
ag75
ag76
ag77
ag78
ag79
ag80
ag81
ag82
ag102
ag103
ag119
ag120
ag121
ag122
ag123
ag124
ag125
aS'-97.7339684029 30.268695175'
p201
aS'-97.7342357275 30.2679103962'
p202
aS'-97.7342986896 30.267725502'
p203
aS'-97.7346660871 30.2668212141'
p204
aS'-97.7350034361 30.2658805615'
p205
aS'-97.7361266392 30.2661756185'
p206
aS'-97.7371871581 30.2664748952'
p207
aS'-97.7382466702 30.2667823946'
p208
aS'-97.7393352819 30.2670684715'
p209
aS'-97.7403752899 30.2673948096'
p210
aS'-97.7414543396 30.2676834251'
p211
aS'-97.7428128807 30.268065693'
p212
aS'-97.7441279091 30.2684168125'
p213
aS'-97.7452035199 30.2687163278'
p214
aS'-97.7462599152 30.269023697'
p215
aS'-97.7473641146 30.2693210199'
p216
aS'-97.7484236903 30.2696284352'
p217
aS'-97.7495242214 30.2699449184'
p218
aS'-97.7505858011 30.2702963604'
p219
aa(lp220
g69
ag70
ag71
ag72
ag73
ag74
ag75
ag76
ag77
ag78
ag79
ag80
ag81
ag82
ag102
ag103
ag119
ag120
ag121
ag122
ag123
ag124
ag125
ag201
ag202
ag203
ag204
ag205
ag206
ag207
ag208
ag209
ag210
ag211
ag212
ag213
ag214
ag215
ag216
ag217
ag218
ag219
aS'-97.7519025198 30.2707285967'
p221
aS'-97.7525216581 30.27096236'
p222
aS'-97.7529404076 30.2711336413'
p223
aS'-97.7539638316 30.2715383862'
p224
aS'-97.7549779705 30.2719387553'
p225
aS'-97.7553888034 30.2720982895'
p226
aS'-97.7571222638 30.2727494752'
p227
aS'-97.757550224 30.2729146'
p228
aS'-97.7579360961 30.2730598725'
p229
aS'-97.7593982049 30.2736035624'
p230
aS'-97.7602113522 30.2738866761'
p231
aS'-97.7608576408 30.2741471546'
p232
aS'-97.7614973057 30.274382799'
p233
aS'-97.7619803414 30.2745685137'
p234
aS'-97.7626389051 30.274826507'
p235
aS'-97.764220383 30.2757685833'
p236
aS'-97.7651859933 30.2762774978'
p237
aS'-97.7662497941 30.2767883718'
p238
aS'-97.767745888 30.2766533146'
p239
aS'-97.7701539212 30.277177062'
p240
aS'-97.7704832538 30.2772177257'
p241
aS'-97.7708309448 30.2766945255'
p242
aS'-97.7711166861 30.2752519171'
p243
aS'-97.7715481467 30.2742296116'
p244
aS'-97.7717725518 30.2739395373'
p245
aS'-97.778432599 30.2680030077'
p246
aS'-97.783420286 30.2655705571'
p247
aS'-97.789889924 30.2628796341'
p248
aS'-97.794561166 30.260297958'
p249
aS'-97.7999353441 30.2573340302'
p250
aS'-97.8062913813 30.2500386605'
p251
aS'-97.8089734406 30.2441073257'
p252
aS'-97.814081421 30.2414783774'
p253
aS'-97.8151770738 30.2409387223'
p254
aS'-97.8200550972 30.2386323343'
p255
aS'-97.830574182 30.2368096807'
p256
aS'-97.8319030526 30.2367424029'
p257
aS'-97.845736047 30.2364559874'
p258
aS'-97.8566004467 30.2355129706'
p259
aS'-97.8584348358 30.2354598452'
p260
aS'-97.8599559934 30.2353749756'
p261
aS'-97.8606443431 30.2352964889'
p262
aS'-97.8648300015 30.2340559652'
p263
aS'-97.871223244 30.2339920247'
p264
aS'-97.8716370422 30.2339651865'
p265
aS'-97.8720520278 30.2339390032'
p266
aS'-97.8724552897 30.2339602004'
p267
aS'-97.8757802743 30.2346949633'
p268
aS'-97.878340093 30.2371010224'
p269
aS'-97.8799608178 30.2394780449'
p270
aS'-97.8884394263 30.2470661151'
p271
aS'-97.8866855477 30.2499751303'
p272
aS'-97.8829850128 30.2471196299'
p273
aS'-97.8823213146 30.2465638945'
p274
aS'-97.881170923 30.2454610276'
p275
aa(lp276
g69
ag70
ag71
ag72
ag73
ag74
ag75
ag76
ag77
ag78
ag79
ag80
ag81
ag82
ag102
ag103
ag119
ag120
ag121
ag122
ag123
ag124
ag125
ag126
ag127
ag128
ag129
ag130
ag131
ag132
ag133
ag134
ag135
ag136
ag137
ag138
ag139
ag140
ag141
ag142
ag143
ag144
ag145
ag146
aS'-97.7509662737 30.2460928302'
p277
aS'-97.7513036386 30.2451452644'
p278
aS'-97.751630177 30.2442469865'
p279
aa(lp280
g69
ag70
ag71
ag72
ag73
ag74
ag75
ag76
ag77
ag78
ag79
ag80
ag81
ag82
ag102
ag103
ag119
ag120
ag121
ag122
ag123
ag124
ag125
ag201
ag202
ag203
ag204
ag205
ag206
ag207
aS'-97.7374841331 30.2655347938'
p281
aS'-97.7378412482 30.2646261638'
p282
aS'-97.7381996855 30.2636680538'
p283
aa(lp284
g69
ag70
aS'-97.6848623416 30.3667666253'
p285
aS'-97.6844391689 30.3684026202'
p286
aS'-97.6831026557 30.3697144522'
p287
aS'-97.6813241681 30.372015526'
p288
aS'-97.6803520751 30.3716076183'
p289
aS'-97.6783406631 30.3749627378'
p290
aS'-97.6776366999 30.3760483228'
p291
aS'-97.6769471575 30.3771598733'
p292
aS'-97.6764820941 30.3771243241'
p293
aS'-97.6755827999 30.3769489224'
p294
aS'-97.6739904444 30.3761598079'
p295
aS'-97.6725348728 30.3754255216'
p296
aS'-97.6698631893 30.3741143245'
p297
aS'-97.6690128382 30.3737681838'
p298
aS'-97.6676146769 30.373279928'
p299
aS'-97.6666991078 30.3728643719'
p300
aS'-97.6657357595 30.372437969'
p301
aS'-97.6636079483 30.3735515364'
p302
aS'-97.6628280068 30.3738321246'
p303
aS'-97.6611603337 30.3746378629'
p304
aS'-97.6590548409 30.3767730751'
p305
aS'-97.6586616504 30.3772900947'
p306
aS'-97.6568732346 30.3782744038'
p307
aS'-97.6542186578 30.3793035027'
p308
aS'-97.6529184983 30.3805594354'
p309
aS'-97.6514425787 30.3821590591'
p310
aS'-97.6495011963 30.3849369422'
p311
aS'-97.6485399454 30.3870039251'
p312
aS'-97.6448659268 30.3846750802'
p313
aS'-97.6355408056 30.378025479'
p314
aS'-97.6317137671 30.3760015131'
p315
aS'-97.6286509722 30.3742287907'
p316
aS'-97.6250841365 30.3724963173'
p317
aS'-97.6218051667 30.3706190501'
p318
aS'-97.6204014866 30.3701347503'
p319
aS'-97.6144460199 30.3687780492'
p320
aS'-97.6131748352 30.3685206653'
p321
aS'-97.6071527971 30.3670369549'
p322
aS'-97.6051144626 30.3654490505'
p323
aS'-97.6035311298 30.3632646833'
p324
aS'-97.6000156488 30.3565970064'
p325
aS'-97.5928564173 30.3526877764'
p326
aS'-97.5915981864 30.3521011111'
p327
aS'-97.5886997847 30.3506534093'
p328
aS'-97.5862479316 30.3495405857'
p329
aS'-97.5819795486 30.3461468329'
p330
aS'-97.5802643661 30.3441758487'
p331
aS'-97.5798289463 30.3441588528'
p332
aS'-97.5745590453 30.3453033108'
p333
aS'-97.572817294 30.3458178974'
p334
aS'-97.5720793027 30.3458607584'
p335
aS'-97.5675318209 30.3470455961'
p336
aS'-97.5654428082 30.3473662992'
p337
aS'-97.5636970968 30.3477333782'
p338
aS'-97.5619745384 30.348199957'
p339
aS'-97.5608166996 30.3484273394'
p340
aS'-97.5593144573 30.3486754538'
p341
aS'-97.5580218908 30.3487627853'
p342
aS'-97.5569698074 30.3488157591'
p343
aS'-97.5559303601 30.3487679458'
p344
aS'-97.5548816164 30.3487963037'
p345
aS'-97.5519267515 30.3490238512'
p346
aS'-97.5465967906 30.3491265222'
p347
aS'-97.5386048868 30.3492741565'
p348
aS'-97.5367522438 30.3491892092'
p349
aS'-97.5299900045 30.3494738789'
p350
aS'-97.5263172209 30.3495538073'
p351
aS'-97.5248550861 30.3493985165'
p352
aS'-97.5235363258 30.3496527629'
p353
aS'-97.5186946244 30.3498163246'
p354
aS'-97.5171704193 30.349728759'
p355
aS'-97.5169113975 30.349739105'
p356
aS'-97.5146162648 30.3498307122'
p357
aS'-97.5127066146 30.3499069113'
p358
aS'-97.5095253473 30.3501895119'
p359
aS'-97.5006792995 30.3505412674'
p360
aS'-97.4916707727 30.3508947832'
p361
aS'-97.4856905229 30.3509061685'
p362
aS'-97.4840597089 30.351102692'
p363
aS'-97.4775591704 30.3512529758'
p364
aS'-97.4753423964 30.3513170488'
p365
aS'-97.4674135861 30.3514714518'
p366
aS'-97.4666949653 30.3513465782'
p367
aS'-97.4623429686 30.3514881024'
p368
aS'-97.4570347027 30.3514750733'
p369
aS'-97.4501288408 30.3514638989'
p370
aS'-97.4425300998 30.3515309698'
p371
aS'-97.4338254888 30.3519022424'
p372
aS'-97.4284485796 30.3521331754'
p373
aS'-97.4277855497 30.3520171542'
p374
aS'-97.4227481304 30.3521973655'
p375
aS'-97.4160101929 30.3521526576'
p376
aS'-97.4120134385 30.3521380541'
p377
aS'-97.4066567722 30.360594749'
p378
aS'-97.4061710453 30.3612864596'
p379
aS'-97.4048900922 30.3633916538'
p380
aS'-97.4041709894 30.3646301634'
p381
aS'-97.4038876666 30.3651181196'
p382
aS'-97.4022889252 30.3676316694'
p383
aS'-97.4016302522 30.3686709072'
p384
aS'-97.4002435209 30.3708390222'
p385
aS'-97.3992387076 30.3723905204'
p386
aS'-97.3982181166 30.3739663506'
p387
aS'-97.3929378177 30.3824739577'
p388
aS'-97.3836913025 30.3970762989'
p389
aS'-97.3821608699 30.3995716334'
p390
aS'-97.3753602764 30.4105934617'
p391
aS'-97.3697897722 30.4193731314'
p392
aS'-97.3702065394 30.4195730115'
p393
aa(lp394
g69
ag70
ag71
aS'-97.6865292781 30.3611847418'
p395
aS'-97.6873569974 30.3599920624'
p396
aS'-97.6885464076 30.3584270916'
p397
aS'-97.6896188975 30.3589499394'
p398
aS'-97.6909552818 30.3596113614'
p399
aS'-97.6917959741 30.360039697'
p400
aS'-97.6934084761 30.3608309048'
p401
aS'-97.694351533 30.361531775'
p402
aS'-97.6956020917 30.3624137225'
p403
aS'-97.69702086 30.3631404449'
p404
aS'-97.6980647401 30.3636192586'
p405
aS'-97.6998716061 30.3644818156'
p406
aS'-97.7016561483 30.3653279087'
p407
aS'-97.703037698 30.3659745608'
p408
aS'-97.7051172119 30.3669217614'
p409
aS'-97.7062428634 30.3674057576'
p410
aS'-97.7072917677 30.3678978818'
p411
aS'-97.708203364 30.3681642959'
p412
aS'-97.7090308242 30.3685154816'
p413
aS'-97.70981461 30.3688912925'
p414
aS'-97.7105884788 30.3692891188'
p415
aS'-97.711472192 30.3696987289'
p416
aS'-97.7123161807 30.3700904134'
p417
aS'-97.713058163 30.3704938983'
p418
aS'-97.7141368942 30.371266067'
p419
aS'-97.7155944464 30.3719818477'
p420
aS'-97.7169863613 30.369804998'
p421
aS'-97.7183448172 30.3683673305'
p422
aS'-97.7204379536 30.370834933'
p423
aS'-97.7213947596 30.3712882638'
p424
aS'-97.7233967533 30.372162761'
p425
aS'-97.7249608261 30.3728554624'
p426
aS'-97.7262888366 30.3735067934'
p427
aS'-97.7269029039 30.3737767615'
p428
aS'-97.7285952482 30.3745760422'
p429
aS'-97.7299695974 30.3752763242'
p430
aS'-97.7315575859 30.3762030719'
p431
aS'-97.7358513156 30.3784857021'
p432
aS'-97.7400888712 30.381249682'
p433
aS'-97.7437039595 30.3870804741'
p434
aS'-97.7461882641 30.3926187147'
p435
aS'-97.7462743163 30.3946366811'
p436
aS'-97.7449953181 30.4075881193'
p437
aS'-97.7453762253 30.4120960483'
p438
aS'-97.7457364256 30.415298432'
p439
aS'-97.7460235388 30.4168607034'
p440
aS'-97.7464430106 30.4191023689'
p441
aS'-97.7468678093 30.4190528706'
p442
aS'-97.7473270214 30.4189993342'
p443
aS'-97.7469954143 30.4174313564'
p444
aS'-97.746609473 30.4153933733'
p445
aa(lp446
g69
ag70
ag71
ag72
ag73
ag74
ag75
ag76
ag77
ag78
ag79
ag80
ag81
ag82
ag102
ag103
ag119
ag120
ag121
ag122
ag123
ag124
ag125
ag201
ag202
ag203
ag204
ag205
ag206
ag207
ag208
ag209
ag210
ag211
ag212
ag213
ag214
ag215
ag216
ag217
ag218
ag219
ag221
ag222
ag223
ag224
ag225
ag226
ag227
ag228
ag229
ag230
ag231
ag232
ag233
ag234
ag235
ag236
ag237
ag238
ag239
ag240
ag241
ag242
ag243
ag244
ag245
ag246
ag247
ag248
ag249
ag250
ag251
ag252
ag253
ag254
ag255
aS'-97.8272109726 30.2313456601'
p447
aS'-97.8291156539 30.2286822982'
p448
aS'-97.8308781128 30.2268419046'
p449
aS'-97.8400490897 30.2172678388'
p450
aS'-97.8573274928 30.2122484556'
p451
aS'-97.8668766973 30.200994568'
p452
aS'-97.8745476173 30.1910597559'
p453
aS'-97.8823389399 30.1811615102'
p454
aS'-97.8869323929 30.1759702015'
p455
aS'-97.8889193945 30.1752628986'
p456
aS'-97.8996234651 30.1820630342'
p457
aS'-97.9057175974 30.1842999378'
p458
aS'-97.9129340894 30.187391722'
p459
aS'-97.9150740554 30.1884505701'
p460
aS'-97.9243716285 30.1933323313'
p461
aS'-97.9252044976 30.1924012622'
p462
aS'-97.9263977505 30.1908616827'
p463
aS'-97.9269489582 30.1899695035'
p464
aS'-97.9289209472 30.1856880179'
p465
aS'-97.9288233902 30.181707449'
p466
aS'-97.9286685542 30.1802432066'
p467
aS'-97.929477337 30.1746646559'
p468
aS'-97.9340041539 30.1730359959'
p469
aS'-97.9439814597 30.1669741414'
p470
aS'-97.9454437942 30.1661708672'
p471
aS'-97.9528417761 30.1618478368'
p472
aS'-97.9676833202 30.1556546593'
p473
aS'-97.9721940608 30.1522423534'
p474
aS'-97.9858774623 30.1468451934'
p475
aS'-98.0102758008 30.1318647265'
p476
aa(lp477
g69
ag70
ag71
ag72
ag73
ag74
ag75
ag76
ag77
ag78
ag79
ag80
ag81
ag82
ag102
ag103
ag119
ag120
ag121
ag122
ag123
ag124
ag125
ag126
ag127
ag128
ag129
ag130
ag131
ag132
ag133
ag134
ag135
ag136
ag137
ag138
ag139
ag140
ag141
ag142
ag143
ag144
ag145
aa(lp478
g69
ag70
ag71
ag72
ag73
ag74
ag75
ag76
ag77
ag78
ag79
ag80
ag81
ag82
ag102
ag103
ag119
ag120
ag121
ag122
ag123
ag124
ag125
ag126
ag127
ag128
ag129
ag130
ag131
ag132
ag133
ag134
ag135
ag136
ag137
aS'-97.7484256594 30.258638126'
p479
aS'-97.750067299 30.2583824511'
p480
aS'-97.7534821896 30.2595843968'
p481
aS'-97.7557050208 30.2603442234'
p482
aS'-97.7578321699 30.2607263917'
p483
aS'-97.7585256863 30.2608625551'
p484
aS'-97.7592171107 30.2585520068'
p485
aS'-97.7601507837 30.2575842467'
p486
aa(lp487
S'-97.7426023711 30.2788620329'
p488
aS'-97.741539324 30.2785627518'
p489
aS'-97.7412012701 30.2794690285'
p490
aS'-97.7408673358 30.2803396334'
p491
aS'-97.7405080509 30.2813279893'
p492
aS'-97.7398943187 30.2811627884'
p493
aS'-97.7394388692 30.2810203169'
p494
aS'-97.7381073338 30.2806880693'
p495
aS'-97.736774266 30.2802952692'
p496
aS'-97.7357085718 30.2799766336'
p497
aS'-97.7345103072 30.2796387994'
p498
aS'-97.7321932751 30.2789749675'
p499
aS'-97.7304863866 30.2785587531'
p500
aS'-97.7290781227 30.278509899'
p501
aS'-97.7288202579 30.2790612198'
p502
aS'-97.7282370909 30.2808270284'
p503
aS'-97.7275687128 30.2821071232'
p504
aS'-97.7163460531 30.2997730797'
p505
aS'-97.7152505757 30.3016567096'
p506
aS'-97.7138750006 30.303815145'
p507
aS'-97.7116175503 30.3073087134'
p508
aS'-97.7100073838 30.3098524802'
p509
aS'-97.7073768972 30.3168904216'
p510
aS'-97.7065628241 30.3225457242'
p511
aS'-97.7052167177 30.3300733565'
p512
aS'-97.704116213 30.3324919156'
p513
aS'-97.7027565143 30.3347009072'
p514
aS'-97.6991412746 30.3404254993'
p515
aS'-97.6895081465 30.3556894118'
p516
aS'-97.6860410954 30.3611965312'
p517
aS'-97.6838628344 30.3642394968'
p518
aS'-97.6827980799 30.3659108586'
p519
aS'-97.6809623301 30.3687924231'
p520
aS'-97.6803138607 30.3698109034'
p521
aS'-97.6796758525 30.3708510236'
p522
aS'-97.6782905344 30.3729814156'
p523
aS'-97.6755827999 30.3769489224'
p524
aS'-97.6764820941 30.3771243241'
p525
aS'-97.677538774 30.37548747'
p526
aS'-97.680912733 30.3701367519'
p527
aS'-97.6818670994 30.3686196746'
p528
aa(lp529
g488
ag489
ag490
ag491
ag492
ag96
ag97
aS'-97.7419906987 30.2826423899'
p530
aS'-97.7419058601 30.2837958196'
p531
aS'-97.741810189 30.2849985356'
p532
aS'-97.7417346769 30.2858918066'
p533
aS'-97.741684594 30.286489434'
p534
aS'-97.74155017 30.2877188698'
p535
aS'-97.7414611474 30.2887622015'
p536
aS'-97.7414153669 30.2890803152'
p537
aS'-97.7413544802 30.2898134266'
p538
aS'-97.740249974 30.2897553294'
p539
aS'-97.739077632 30.289627091'
p540
aS'-97.7379923571 30.2895611125'
p541
aS'-97.736806685 30.2894573354'
p542
aS'-97.7346089749 30.2893161987'
p543
ag116
ag117
aa(lp544
g488
aS'-97.742990759 30.2778968946'
p545
aS'-97.7433352348 30.2769406049'
p546
aS'-97.7437087612 30.2760102871'
p547
aS'-97.7441260911 30.2748536756'
p548
aS'-97.7445817484 30.2737066379'
p549
aS'-97.7448920595 30.2727695396'
p550
aS'-97.7452344014 30.271819336'
p551
aS'-97.7455924983 30.2708722002'
p552
aS'-97.7459337214 30.2699632275'
p553
aS'-97.7462599152 30.269023697'
p554
aS'-97.7466333839 30.2680933713'
p555
aS'-97.7469619202 30.2671841403'
p556
aS'-97.7473044438 30.2662256841'
p557
aS'-97.747671778 30.2652869811'
p558
aS'-97.7480005905 30.2643667524'
p559
aS'-97.746943946 30.2640703939'
p560
aS'-97.7458559359 30.263762391'
p561
aS'-97.7445671086 30.263381563'
p562
ag136
ag137
ag138
ag139
ag140
ag141
ag142
ag143
ag144
ag145
ag146
aa(lp563
g488
ag545
ag546
ag547
ag548
ag549
ag550
ag551
ag552
ag553
ag554
ag555
ag556
ag557
ag558
ag559
ag560
ag561
ag562
ag136
ag137
ag138
ag139
ag140
ag141
ag142
ag143
ag144
aa(lp564
g488
ag545
ag546
ag547
ag548
ag549
ag550
ag551
ag552
ag553
ag554
ag555
ag556
ag557
ag558
ag559
ag560
ag561
ag562
ag136
ag137
ag138
ag139
ag140
ag141
ag142
ag143
aa(lp565
g488
ag545
ag162
ag163
ag164
ag165
ag166
ag167
ag168
ag169
ag170
ag171
ag172
ag173
ag174
ag175
ag176
ag177
ag178
ag179
ag180
ag181
ag182
ag183
ag184
ag185
ag186
ag187
ag188
ag189
ag190
ag191
ag192
ag193
ag194
ag195
ag196
ag197
ag198
ag199
aa(lp566
g488
ag545
ag546
ag547
ag548
ag549
ag550
ag551
ag552
ag553
ag554
ag216
ag217
ag218
ag219
aa(lp567
g488
ag545
ag546
ag547
ag548
aS'-97.7452039756 30.2751526021'
p568
aS'-97.7462727942 30.2754648967'
p569
aS'-97.7473566193 30.2757637597'
p570
aS'-97.7484296799 30.2760589871'
p571
aS'-97.7499112491 30.2764105167'
p572
aS'-97.7513978699 30.2768970351'
p573
aS'-97.751826172 30.2759595479'
p574
aS'-97.7522775738 30.2750170242'
p575
aS'-97.7527737429 30.2739487473'
p576
aS'-97.7539638316 30.2715383862'
p577
ag225
ag226
ag227
ag228
ag229
ag230
ag231
ag232
ag233
ag234
ag235
ag236
ag237
ag238
ag239
ag240
ag241
ag242
ag243
ag244
ag245
ag246
ag247
ag248
ag249
ag250
ag251
ag252
ag253
ag254
ag255
ag256
ag257
ag258
ag259
ag260
ag261
ag262
ag263
ag264
ag265
ag266
ag267
ag268
ag269
ag270
ag271
ag272
ag273
ag274
ag275
aa(lp578
g488
ag545
ag546
ag547
ag548
ag549
ag550
ag551
ag552
ag553
ag554
ag555
ag556
ag557
ag558
ag559
ag560
ag561
ag562
ag136
ag137
ag138
ag139
ag140
ag141
ag142
ag143
ag144
ag145
ag146
ag277
ag278
ag279
aa(lp579
g488
ag545
ag546
ag547
ag548
ag549
ag550
ag551
ag552
ag553
aS'-97.7448456482 30.2696552159'
p580
aS'-97.7437734162 30.269347515'
p581
aS'-97.7424718562 30.2689664107'
p582
aS'-97.7411096192 30.2686033169'
p583
aS'-97.7400374108 30.2682955848'
p584
aS'-97.7389488581 30.268006766'
p585
aS'-97.7379178314 30.2676998497'
p586
aS'-97.7368168465 30.2674025087'
p587
aS'-97.7371871581 30.2664748952'
p588
ag281
ag282
ag283
aa(lp589
g488
ag489
ag490
ag491
ag492
ag493
ag494
ag495
ag496
ag497
ag498
ag499
ag500
ag501
ag502
ag503
ag504
ag505
ag506
ag507
ag508
ag509
ag510
aS'-97.7044611561 30.3219587046'
p590
aS'-97.6983283369 30.3215169474'
p591
aS'-97.6930558365 30.3210921764'
p592
aS'-97.6837708592 30.3219236786'
p593
aS'-97.6785096964 30.3236192855'
p594
aS'-97.6750919169 30.3243487182'
p595
aS'-97.6740629593 30.3245556623'
p596
aS'-97.6723241989 30.3242165739'
p597
aS'-97.6683918569 30.3213838676'
p598
aS'-97.6668631589 30.3202319554'
p599
aS'-97.6655484496 30.3191021077'
p600
aS'-97.6645718616 30.3178489442'
p601
aS'-97.6638233394 30.3161301765'
p602
aS'-97.6635717584 30.315283316'
p603
aS'-97.662688736 30.3166331082'
p604
aS'-97.6623640615 30.3171971882'
p605
aS'-97.661362821 30.3186945434'
p606
aS'-97.6610926076 30.3190908195'
p607
aS'-97.6605000866 30.319959757'
p608
aS'-97.6576392497 30.3205850936'
p609
aS'-97.6534040798 30.3220843007'
p610
aS'-97.6524381802 30.3223177372'
p611
aS'-97.6523132833 30.3223479208'
p612
aS'-97.6444421915 30.3241830351'
p613
aS'-97.6394644237 30.3258438885'
p614
aS'-97.6374799161 30.326504653'
p615
aS'-97.6370157269 30.3266592095'
p616
aS'-97.635285591 30.3272352549'
p617
aS'-97.6347791844 30.3274038572'
p618
aS'-97.6264295811 30.327571644'
p619
aS'-97.6232751523 30.3312304269'
p620
aS'-97.6230396687 30.3317796285'
p621
aS'-97.615847917 30.3431733667'
p622
aS'-97.6132857949 30.342393398'
p623
aS'-97.6122076632 30.342121472'
p624
aS'-97.6095677776 30.340653132'
p625
aS'-97.6048755812 30.3383199115'
p626
aS'-97.6017313127 30.3364891384'
p627
aS'-97.5993615692 30.3373705342'
p628
aS'-97.5943069871 30.3391184367'
p629
aS'-97.5936888471 30.3395167793'
p630
aS'-97.5890448795 30.3412759741'
p631
aS'-97.5854348466 30.3426338999'
p632
aS'-97.5802643661 30.3441758487'
p633
ag332
ag333
ag334
ag335
ag336
ag337
ag338
ag339
ag340
ag341
ag342
ag343
ag344
ag345
ag346
ag347
ag348
ag349
ag350
ag351
ag352
ag353
ag354
ag355
ag356
ag357
ag358
ag359
ag360
ag361
ag362
ag363
ag364
ag365
ag366
ag367
ag368
ag369
ag370
ag371
ag372
ag373
ag374
ag375
ag376
ag377
ag378
ag379
ag380
ag381
ag382
ag383
ag384
ag385
ag386
ag387
ag388
ag389
ag390
ag391
ag392
ag393
aa(lp634
g488
ag545
ag162
ag163
ag164
ag165
ag166
aS'-97.7500221958 30.2803001103'
p635
aS'-97.7503494792 30.2804767058'
p636
aS'-97.7505599975 30.281222606'
p637
aS'-97.7512332578 30.2827253718'
p638
aS'-97.7520776546 30.2836017535'
p639
aS'-97.7528919961 30.2847672179'
p640
aS'-97.7530828221 30.2870499352'
p641
aS'-97.7527687058 30.2885336626'
p642
aS'-97.754139366 30.2889161854'
p643
aS'-97.7562592791 30.2894621695'
p644
aS'-97.7568092662 30.2903478349'
p645
aS'-97.7575053079 30.2910041674'
p646
aS'-97.7577394334 30.291120124'
p647
aS'-97.7579927071 30.2912489785'
p648
aS'-97.7588209853 30.2916534171'
p649
aS'-97.7585946625 30.2925042254'
p650
aS'-97.7590472917 30.2929717161'
p651
aS'-97.7591444451 30.2942141796'
p652
aS'-97.7580815839 30.2982330464'
p653
aS'-97.7582801929 30.303517797'
p654
aS'-97.7576309518 30.3069795586'
p655
aS'-97.7569256789 30.3104675865'
p656
aS'-97.7559321855 30.3186500972'
p657
aS'-97.7556065295 30.326022391'
p658
aS'-97.7554363016 30.3323307054'
p659
aS'-97.7553886999 30.3356499929'
p660
aS'-97.7496128495 30.3487347814'
p661
aS'-97.7473288275 30.3540914791'
p662
aS'-97.745501681 30.3580976424'
p663
aS'-97.7439494589 30.3623942984'
p664
aS'-97.7421492632 30.3688168511'
p665
aS'-97.7405919281 30.3726994425'
p666
aS'-97.7393889227 30.3753474533'
p667
aS'-97.7384945604 30.3771390172'
p668
aS'-97.7425866478 30.3853003272'
p669
aS'-97.7437039595 30.3870804741'
p670
ag435
ag436
ag437
ag438
ag439
ag440
ag441
ag442
ag443
ag444
ag445
aa(lp671
g488
ag545
ag546
ag547
ag548
ag568
ag569
ag570
ag571
ag572
ag573
ag574
ag575
ag576
ag577
ag225
ag226
ag227
ag228
ag229
ag230
ag231
ag232
ag233
ag234
ag235
ag236
ag237
ag238
ag239
ag240
ag241
ag242
ag243
ag244
ag245
ag246
ag247
ag248
ag249
ag250
ag251
ag252
ag253
ag254
ag255
ag447
ag448
ag449
ag450
ag451
ag452
ag453
ag454
ag455
ag456
ag457
ag458
ag459
ag460
ag461
ag462
ag463
ag464
ag465
ag466
ag467
ag468
ag469
ag470
ag471
ag472
ag473
ag474
ag475
ag476
aa(lp672
g488
ag545
ag546
ag547
ag548
ag549
ag550
ag551
ag552
ag553
ag554
ag555
ag556
ag557
ag558
ag559
ag560
ag561
ag562
ag136
ag137
ag138
ag139
ag140
ag141
ag142
ag143
ag144
ag145
aa(lp673
g488
ag545
ag546
ag547
ag548
ag568
ag569
ag570
ag571
ag572
ag573
ag574
ag575
ag576
ag577
aS'-97.7546015798 30.2702905787'
p674
aS'-97.7556906435 30.2679639253'
p675
aS'-97.7558296236 30.2676526603'
p676
aS'-97.75625185 30.2665134668'
p677
aS'-97.7571055104 30.2645253931'
p678
aS'-97.7577423196 30.2629306541'
p679
aS'-97.7580411593 30.2621383219'
p680
aS'-97.7585256863 30.2608625551'
p681
ag485
ag486
aa(lp682
S'-97.7345303708 30.2904288274'
p683
aS'-97.734458154 30.2900505648'
p684
aS'-97.7346089749 30.2893161987'
p685
aS'-97.7332807887 30.2892029814'
p686
aS'-97.7303067603 30.2891110371'
p687
aS'-97.729726337 30.2888741037'
p688
aS'-97.7291359976 30.2883305478'
p689
aS'-97.7267426104 30.2871665682'
p690
aS'-97.7260266073 30.2869234763'
p691
aS'-97.7236910526 30.2859240135'
p692
aS'-97.7240888973 30.2873920576'
p693
aS'-97.7236749836 30.2880492165'
p694
aS'-97.7233547068 30.2885542605'
p695
aS'-97.7230557328 30.2890624881'
p696
aS'-97.7227155049 30.2895726251'
p697
aS'-97.722198309 30.290375315'
p698
aS'-97.721462311 30.2918790105'
p699
aS'-97.718676205 30.2962563047'
p700
aS'-97.7152505757 30.3016567096'
p701
ag507
ag508
ag509
ag510
ag511
ag512
ag513
ag514
ag515
ag516
ag517
ag518
ag519
ag520
ag521
ag522
ag523
ag524
ag525
ag526
ag527
ag528
aa(lp702
g683
ag684
ag685
aS'-97.736806685 30.2894573354'
p703
aS'-97.7379923571 30.2895611125'
p704
aS'-97.739077632 30.289627091'
p705
aS'-97.740249974 30.2897553294'
p706
aS'-97.7413544802 30.2898134266'
p707
aS'-97.7414153669 30.2890803152'
p708
aS'-97.7414611474 30.2887622015'
p709
aS'-97.74155017 30.2877188698'
p710
aS'-97.741684594 30.286489434'
p711
aS'-97.7417346769 30.2858918066'
p712
aS'-97.741810189 30.2849985356'
p713
aS'-97.7419058601 30.2837958196'
p714
aS'-97.7419906987 30.2826423899'
p715
aS'-97.7419244151 30.2817330505'
p716
ag98
ag99
ag100
aa(lp717
g683
ag684
ag685
ag703
ag704
ag705
ag706
ag707
ag708
ag709
ag710
ag711
ag712
ag713
ag714
ag715
ag716
ag98
ag99
ag100
ag545
ag546
ag547
ag548
ag549
ag550
ag551
ag552
ag553
ag554
ag555
ag556
ag557
ag558
ag559
ag560
ag561
ag562
ag136
ag137
ag138
ag139
ag140
ag141
ag142
ag143
ag144
ag145
ag146
aa(lp718
g683
ag684
ag685
ag703
ag704
ag705
ag706
ag707
ag708
ag709
ag710
ag711
ag712
ag713
ag714
ag715
ag716
ag98
ag99
ag100
ag545
ag546
ag547
ag548
ag549
ag550
ag551
ag552
ag553
ag554
ag555
ag556
ag557
ag558
ag559
ag560
ag561
ag562
ag136
ag137
ag138
ag139
ag140
ag141
ag142
ag143
ag144
aa(lp719
g683
ag684
ag685
ag703
ag704
ag705
ag706
ag707
ag708
ag709
ag710
ag711
ag712
ag713
ag714
ag715
ag716
ag98
ag99
ag100
ag545
ag546
ag547
ag548
ag549
ag550
ag551
ag552
ag553
ag554
ag555
ag556
ag557
ag558
ag559
ag560
ag561
ag562
ag136
ag137
ag138
ag139
ag140
ag141
ag142
ag143
aa(lp720
g683
ag684
ag685
ag703
ag704
ag705
ag706
ag707
ag708
ag709
ag710
aS'-97.742375916 30.2877713209'
p721
aS'-97.7426453717 30.2877685171'
p722
aS'-97.7431445022 30.2878281121'
p723
aS'-97.7436579256 30.2878274864'
p724
aS'-97.7439038071 30.287876461'
p725
aS'-97.7446818236 30.2879361838'
p726
aS'-97.7467789802 30.2880857899'
p727
aS'-97.7478322752 30.2881620504'
p728
aS'-97.7493273263 30.2883104676'
p729
aS'-97.7504438456 30.2883632282'
p730
aS'-97.7508478657 30.2883947759'
p731
aS'-97.7514629491 30.2884442703'
p732
aS'-97.7527687058 30.2885336626'
p733
ag643
ag644
ag645
ag646
ag647
ag648
ag649
aS'-97.7591653302 30.2917840986'
p734
aS'-97.7607355034 30.2924870259'
p735
aS'-97.760991519 30.292594469'
p736
aS'-97.762000023 30.2928828842'
p737
aS'-97.7628086079 30.2930866217'
p738
aS'-97.7637599969 30.2933197343'
p739
aS'-97.7643068544 30.2934599714'
p740
aS'-97.7652256858 30.2938102369'
p741
aS'-97.7657105455 30.2942419199'
p742
aS'-97.7660957671 30.2946351057'
p743
aS'-97.7668517437 30.2954247824'
p744
aS'-97.7672686063 30.2958697155'
p745
aS'-97.7674949554 30.296078041'
p746
aS'-97.7682589211 30.2966997417'
p747
aS'-97.7687787577 30.2958630419'
p748
aS'-97.7699599437 30.2939916931'
p749
aS'-97.7704363818 30.293236629'
p750
aS'-97.7708153013 30.2925731255'
p751
aS'-97.7713164099 30.2918433047'
p752
aS'-97.7714489219 30.2915076628'
p753
aS'-97.7716490759 30.2912503828'
p754
aS'-97.7720530291 30.2905983768'
p755
ag192
ag193
ag194
ag195
ag196
ag197
ag198
ag199
aa(lp756
g683
ag684
ag685
ag703
ag704
ag705
ag706
ag707
ag708
ag709
ag710
ag711
ag712
ag713
ag714
ag715
ag716
ag98
ag99
ag100
ag545
ag546
ag547
ag548
ag549
ag550
ag551
ag552
ag553
ag554
ag216
ag217
ag218
ag219
aa(lp757
g683
ag684
ag685
ag703
ag704
ag705
ag706
ag707
ag708
ag709
ag710
ag721
ag722
ag723
ag724
ag725
ag726
ag727
ag728
ag729
ag730
ag731
ag732
ag733
ag643
aS'-97.7544178235 30.2882172092'
p758
aS'-97.7554210232 30.2872294381'
p759
aS'-97.7564039332 30.2862994398'
p760
aS'-97.7564082274 30.286138592'
p761
aS'-97.7565029557 30.2852315501'
p762
aS'-97.7568582706 30.2853954629'
p763
aS'-97.7579811337 30.2861001161'
p764
aS'-97.7587403233 30.2864542942'
p765
aS'-97.7601248715 30.287116796'
p766
aS'-97.7607086614 30.2862594104'
p767
aS'-97.7612875889 30.2854651824'
p768
aS'-97.761863193 30.2846763869'
p769
ag178
ag179
ag180
ag181
ag182
ag183
aS'-97.7661223821 30.2845582534'
p770
aS'-97.766414976 30.2839232876'
p771
aS'-97.7668353541 30.2832496246'
p772
aS'-97.7672089121 30.2826013441'
p773
aS'-97.7674903882 30.2821135161'
p774
aS'-97.7680223123 30.2812640545'
p775
aS'-97.7696951906 30.2767170249'
p776
aS'-97.7715481467 30.2742296116'
p777
ag245
ag246
ag247
ag248
ag249
ag250
ag251
ag252
ag253
ag254
ag255
ag256
ag257
ag258
ag259
ag260
ag261
ag262
ag263
ag264
ag265
ag266
ag267
ag268
ag269
ag270
ag271
ag272
ag273
ag274
ag275
aa(lp778
g683
ag684
ag685
ag703
ag704
ag705
ag706
ag707
ag708
ag709
ag710
ag711
ag712
ag713
ag714
ag715
ag716
ag98
ag99
ag100
ag545
ag546
ag547
ag548
ag549
ag550
ag551
ag552
ag553
ag554
ag555
ag556
ag557
ag558
ag559
ag560
ag561
ag562
ag136
ag137
ag138
ag139
ag140
ag141
ag142
ag143
ag144
ag145
ag146
ag277
ag278
ag279
aa(lp779
g683
ag684
ag685
ag686
ag687
ag688
ag689
ag690
aS'-97.727964714 30.2832271145'
p780
aS'-97.7274795718 30.2830907345'
p781
aS'-97.7291664119 30.2813770369'
p782
aS'-97.7299695947 30.2798904266'
p783
ag87
aS'-97.7313221736 30.2761407044'
p784
ag151
ag152
aS'-97.7318579589 30.2744908397'
p785
aS'-97.7319819038 30.2741257168'
p786
aS'-97.732384677 30.2721923942'
p787
ag125
ag201
ag202
ag203
ag204
ag205
ag206
ag207
ag281
ag282
ag283
aa(lp788
g683
ag684
ag685
ag686
ag687
ag688
ag689
ag690
ag691
ag692
ag693
ag694
ag695
ag696
ag697
ag698
ag699
ag700
ag701
ag507
ag508
ag509
ag510
ag590
ag591
ag592
ag593
ag594
ag595
ag596
ag597
ag598
ag599
ag600
ag601
ag602
ag603
ag604
ag605
ag606
ag607
ag608
ag609
ag610
ag611
ag612
ag613
ag614
ag615
ag616
ag617
ag618
ag619
ag620
ag621
ag622
ag623
ag624
ag625
ag626
ag627
ag628
ag629
ag630
ag631
ag632
ag633
ag332
ag333
ag334
ag335
ag336
ag337
ag338
ag339
ag340
ag341
ag342
ag343
ag344
ag345
ag346
ag347
ag348
ag349
ag350
ag351
ag352
ag353
ag354
ag355
ag356
ag357
ag358
ag359
ag360
ag361
ag362
ag363
ag364
ag365
ag366
ag367
ag368
ag369
ag370
ag371
ag372
ag373
ag374
ag375
ag376
ag377
ag378
ag379
ag380
ag381
ag382
ag383
ag384
ag385
ag386
ag387
ag388
ag389
ag390
ag391
ag392
ag393
aa(lp789
g683
aS'-97.7347348692 30.2909555404'
p790
aS'-97.7360252201 30.2931764761'
p791
aS'-97.7375067548 30.29430113'
p792
aS'-97.7384267421 30.2947405631'
p793
aS'-97.7393535487 30.2952213826'
p794
aS'-97.7397613798 30.2953904209'
p795
aS'-97.7402593675 30.2956366972'
p796
aS'-97.7411287409 30.2960356468'
p797
aS'-97.7421002908 30.2965035992'
p798
aS'-97.7419651733 30.2966961417'
p799
aS'-97.7411979193 30.2978852795'
p800
aS'-97.7409404204 30.2982678708'
p801
aS'-97.7405557499 30.2989009207'
p802
aS'-97.7404270345 30.2990908417'
p803
aS'-97.7399811331 30.2997611562'
p804
aS'-97.7398946327 30.2999134252'
p805
aS'-97.7396486137 30.300340252'
p806
aS'-97.7391017003 30.3012010445'
p807
aS'-97.7389098872 30.3015272044'
p808
aS'-97.7385874592 30.3019662344'
p809
aS'-97.7381466427 30.30274116'
p810
aS'-97.7392576264 30.3033302209'
p811
aS'-97.7397842096 30.3035801576'
p812
aS'-97.7414311624 30.3044248233'
p813
aS'-97.7430491731 30.3051973744'
p814
aS'-97.7441477288 30.3057201324'
p815
aS'-97.7457046328 30.3064089046'
p816
aS'-97.7463781042 30.3067085337'
p817
aS'-97.74750587 30.3070888341'
p818
aS'-97.7486477884 30.3072961374'
p819
aS'-97.7494425541 30.3071754133'
p820
aS'-97.7504689073 30.3070379816'
p821
aS'-97.7507774108 30.3071960435'
p822
aS'-97.7511655695 30.3074678966'
p823
aS'-97.7516012193 30.3078012116'
p824
aS'-97.7526140031 30.3080966404'
p825
aS'-97.7542908376 30.3084824327'
p826
aS'-97.7546234453 30.3085798853'
p827
aS'-97.7549433552 30.3085890708'
p828
aS'-97.7555068136 30.3086774126'
p829
aS'-97.7558872546 30.3087345688'
p830
aS'-97.7561385742 30.30840408'
p831
aS'-97.7569256789 30.3104675865'
p832
ag657
ag658
ag659
ag660
ag661
ag662
ag663
ag664
ag665
ag666
ag667
ag668
ag669
ag670
ag435
ag436
ag437
ag438
ag439
ag440
ag441
ag442
ag443
ag444
ag445
aa(lp833
g683
ag684
ag685
ag703
ag704
ag705
ag706
ag707
ag708
ag709
ag710
ag721
ag722
ag723
ag724
ag725
ag726
ag727
ag728
ag729
ag730
ag731
ag732
ag733
ag643
ag758
ag759
ag760
ag761
ag762
ag763
ag764
ag765
ag766
ag767
ag768
ag769
ag178
ag179
ag180
ag181
ag182
ag183
ag770
ag771
ag772
ag773
ag774
ag775
ag776
ag777
ag245
ag246
ag247
ag248
ag249
ag250
ag251
ag252
ag253
ag254
ag255
ag447
ag448
ag449
ag450
ag451
ag452
ag453
ag454
ag455
ag456
ag457
ag458
ag459
ag460
ag461
ag462
ag463
ag464
ag465
ag466
ag467
ag468
ag469
ag470
ag471
ag472
ag473
ag474
ag475
ag476
aa(lp834
g683
ag684
ag685
ag703
ag704
ag705
ag706
ag707
ag708
ag709
ag710
ag711
ag712
ag713
ag714
ag715
ag716
ag98
ag99
ag100
ag545
ag546
ag547
ag548
ag549
ag550
ag551
ag552
ag553
ag554
ag555
ag556
ag557
ag558
ag559
ag560
ag561
ag562
ag136
ag137
ag138
ag139
ag140
ag141
ag142
ag143
ag144
ag145
aa(lp835
g683
ag684
ag685
ag703
ag704
ag705
ag706
ag707
ag708
ag709
ag710
ag711
ag712
ag713
ag714
ag715
ag716
ag98
ag99
ag100
ag545
ag546
ag547
ag548
ag568
ag569
ag570
ag571
ag572
ag573
ag574
ag575
ag576
ag577
ag674
ag675
ag676
ag677
ag678
ag679
ag680
ag681
ag485
ag486
aa(lp836
S'-97.750624593 30.2470238054'
p837
aS'-97.7502704629 30.2479462779'
p838
aS'-97.7499370173 30.2489241733'
p839
aS'-97.7495922416 30.24982208'
p840
aS'-97.7495132752 30.2499910078'
p841
aS'-97.7491053942 30.2511159189'
p842
aS'-97.7487066872 30.2521640039'
p843
aS'-97.7486530833 30.2522729356'
p844
aS'-97.7468752495 30.2571436558'
p845
aS'-97.7461413542 30.2591118319'
p846
aS'-97.7451563752 30.2616992585'
p847
aS'-97.7445671086 30.263381563'
p848
aS'-97.7432070236 30.263029535'
p849
aS'-97.7421040156 30.2626909438'
p850
aS'-97.7410759071 30.2623951125'
p851
aS'-97.7387921561 30.2617823162'
p852
aS'-97.737843586 30.2615235366'
p853
aS'-97.7367666157 30.2612297186'
p854
aS'-97.7357844106 30.2609952819'
p855
aS'-97.7357045878 30.2613549767'
p856
aS'-97.7352608261 30.2637818493'
p857
aS'-97.7350551526 30.2643333312'
p858
aS'-97.7328911542 30.2702033634'
p859
aS'-97.7321713457 30.2720777469'
p860
aS'-97.7310188562 30.2756011695'
p861
aS'-97.7297430587 30.2786352678'
p862
aS'-97.7275687128 30.2821071232'
p863
ag505
ag506
ag507
ag508
ag509
ag510
ag511
ag512
ag513
ag514
ag515
ag516
ag517
ag518
ag519
ag520
ag521
ag522
ag523
ag524
ag525
ag526
ag527
ag528
aa(lp864
g837
ag838
ag839
ag840
ag841
ag842
ag843
ag844
ag845
ag846
ag847
ag848
aS'-97.7441965849 30.2643201929'
p865
aS'-97.7438677362 30.265240412'
p866
aS'-97.7434963874 30.2662092782'
p867
aS'-97.7431709874 30.2671185642'
p868
aS'-97.7428128807 30.268065693'
p869
aS'-97.7424718562 30.2689664107'
p870
aS'-97.7421139571 30.2699052911'
p871
aS'-97.7417558296 30.2708524172'
p872
aS'-97.7414419593 30.2718031879'
p873
aS'-97.7411060607 30.2727480118'
p874
aS'-97.7424020711 30.2731015145'
p875
aS'-97.7428459246 30.2732367566'
p876
aS'-97.7434616726 30.27340897'
p877
aS'-97.7430310643 30.2745336829'
p878
aS'-97.7425880711 30.2757346032'
p879
aS'-97.7422716163 30.2766633216'
p880
aS'-97.741926268 30.2776045462'
p881
aS'-97.741539324 30.2785627518'
p882
aS'-97.7426023711 30.2788620329'
p883
aa(lp884
g837
ag838
ag839
ag840
ag841
ag842
ag843
ag844
ag845
ag846
ag847
ag848
ag865
ag866
ag867
ag868
ag869
ag870
ag871
ag872
ag873
ag874
ag875
ag876
ag877
ag878
ag879
ag880
ag881
ag882
ag490
ag491
ag492
ag96
ag97
ag530
ag531
ag532
ag533
ag534
ag535
ag536
ag537
ag538
ag539
ag540
ag541
ag542
ag543
ag116
ag117
aa(lp885
g837
ag838
ag839
aa(lp886
g837
ag838
ag839
ag840
aa(lp887
g837
ag838
ag839
ag840
ag841
ag842
ag843
ag844
ag845
ag846
ag847
ag848
aS'-97.7458559359 30.263762391'
p888
aS'-97.746943946 30.2640703939'
p889
aS'-97.7480005905 30.2643667524'
p890
aS'-97.7491176295 30.26465607'
p891
aS'-97.7501606043 30.2649725285'
p892
aS'-97.7523540914 30.2656381931'
p893
aS'-97.7535238708 30.2659932996'
p894
aS'-97.7555386412 30.2664345938'
p895
aS'-97.757094282 30.2669647133'
p896
aS'-97.7614741783 30.2693693331'
p897
aS'-97.7637056331 30.2715407675'
p898
aS'-97.7652511831 30.2733029197'
p899
aS'-97.7672161859 30.2763412167'
p900
aS'-97.7701539212 30.277177062'
p901
ag241
aS'-97.7714874062 30.2775202628'
p902
aS'-97.7718663999 30.2776873586'
p903
aS'-97.7724367275 30.2780050059'
p904
aS'-97.7731792221 30.2785340977'
p905
aS'-97.7725081254 30.2795374023'
p906
aS'-97.7718139081 30.2806209078'
p907
aS'-97.7743588539 30.2818048871'
p908
aS'-97.7752290862 30.2822100574'
p909
aS'-97.7760364906 30.2825947147'
p910
aS'-97.7764938211 30.2827963633'
p911
aS'-97.7767743657 30.2832117588'
p912
aS'-97.7802591744 30.2878557973'
p913
aS'-97.7810831925 30.2889538466'
p914
aS'-97.7819481322 30.2901063965'
p915
aS'-97.7830621204 30.2915907573'
p916
aS'-97.7838043382 30.2961270548'
p917
aa(lp918
g837
ag838
ag839
ag840
ag841
ag842
ag843
ag844
ag845
ag846
ag847
ag848
ag888
ag889
aS'-97.7465864031 30.2649982911'
p919
aS'-97.7462446144 30.265929256'
p920
aS'-97.7458707083 30.2668760735'
p921
aS'-97.7455450348 30.267796361'
p922
aS'-97.7452035199 30.2687163278'
p923
ag215
ag216
ag217
ag218
ag219
aa(lp924
g837
ag277
ag278
ag279
aS'-97.751912358 30.2435265861'
p925
aS'-97.7521719543 30.2429102417'
p926
aS'-97.7525268227 30.2418521062'
p927
aS'-97.7526994481 30.2408059208'
p928
aS'-97.752857607 30.2398279818'
p929
aS'-97.7535190324 30.2387596268'
p930
aS'-97.7548877289 30.2372057465'
p931
aS'-97.7563647387 30.2355082639'
p932
aS'-97.7584604628 30.2324617936'
p933
aS'-97.7588943608 30.2317499299'
p934
aS'-97.75934011 30.2310685575'
p935
aS'-97.759803219 30.2303297748'
p936
aS'-97.7602077297 30.2296503214'
p937
aS'-97.7611908021 30.2280583776'
p938
aS'-97.7616259595 30.2271787616'
p939
aS'-97.7622645942 30.2259126834'
p940
aS'-97.7625051906 30.2253812004'
p941
aS'-97.7631266341 30.2242734671'
p942
aS'-97.7635980367 30.2234098926'
p943
aS'-97.7642079806 30.2238098966'
p944
aS'-97.7694114828 30.2267321466'
p945
aS'-97.7768433148 30.2277810467'
p946
aS'-97.7807923074 30.2279395951'
p947
aS'-97.7883933924 30.2301729187'
p948
aS'-97.7932687401 30.2325407609'
p949
aS'-97.8030990062 30.232202593'
p950
aS'-97.8061232031 30.2320434293'
p951
aS'-97.8128590666 30.2337501484'
p952
aS'-97.8166525571 30.2333394118'
p953
aS'-97.8191523564 30.2333130459'
p954
aS'-97.8205873996 30.2337384576'
p955
aS'-97.8243799635 30.2354766441'
p956
aS'-97.8319030526 30.2367424029'
p957
ag258
ag259
ag260
ag261
ag262
ag263
ag264
ag265
ag266
ag267
ag268
ag269
ag270
ag271
ag272
ag273
ag274
ag275
aa(lp958
g837
ag277
ag278
ag279
aa(lp959
g837
ag838
ag839
ag840
ag841
ag842
ag843
ag844
ag845
ag846
ag847
ag848
ag849
ag850
ag851
ag852
aS'-97.7381996855 30.2636680538'
p960
aa(lp961
g837
ag838
ag839
ag840
ag841
ag842
ag843
ag844
ag845
ag846
ag847
ag848
ag849
ag850
ag851
ag852
ag853
ag854
ag855
ag856
ag857
ag858
ag859
ag860
ag861
ag862
ag863
ag505
ag506
ag507
ag508
ag509
ag510
ag590
ag591
ag592
ag593
ag594
ag595
ag596
ag597
ag598
ag599
ag600
ag601
ag602
ag603
ag604
ag605
ag606
ag607
ag608
ag609
ag610
ag611
ag612
ag613
ag614
ag615
ag616
ag617
ag618
ag619
ag620
ag621
ag622
ag623
ag624
ag625
ag626
ag627
ag628
ag629
ag630
ag631
ag632
ag633
ag332
ag333
ag334
ag335
ag336
ag337
ag338
ag339
ag340
ag341
ag342
ag343
ag344
ag345
ag346
ag347
ag348
ag349
ag350
ag351
ag352
ag353
ag354
ag355
ag356
ag357
ag358
ag359
ag360
ag361
ag362
ag363
ag364
ag365
ag366
ag367
ag368
ag369
ag370
ag371
ag372
ag373
ag374
ag375
ag376
ag377
ag378
ag379
ag380
ag381
ag382
ag383
ag384
ag385
ag386
ag387
ag388
ag389
ag390
ag391
ag392
ag393
aa(lp962
g837
ag838
ag839
ag840
ag841
ag842
ag843
ag844
ag845
ag846
ag847
ag848
ag888
ag889
ag890
ag891
ag892
ag893
ag894
ag895
ag896
ag897
ag898
ag899
aS'-97.7666963857 30.2801798104'
p963
aS'-97.7660946699 30.2812939904'
p964
aS'-97.7651495857 30.2837218037'
p965
aS'-97.7621822605 30.288096585'
p966
aS'-97.759815855 30.2921372969'
p967
aS'-97.7591444451 30.2942141796'
p968
ag653
ag654
ag655
ag656
ag657
ag658
ag659
ag660
ag661
ag662
ag663
ag664
ag665
ag666
ag667
ag668
ag669
ag670
ag435
ag436
ag437
ag438
ag439
ag440
ag441
ag442
ag443
ag444
ag445
aa(lp969
g837
ag277
ag278
ag279
ag925
ag926
ag927
ag928
ag929
ag930
ag931
ag932
ag933
ag934
ag935
ag936
ag937
ag938
ag939
ag940
ag941
ag942
ag943
ag944
ag945
ag946
ag947
ag948
ag949
ag950
ag951
ag952
ag953
ag954
aS'-97.820455215 30.2339404972'
p970
aS'-97.8272109726 30.2313456601'
p971
ag448
ag449
ag450
ag451
ag452
ag453
ag454
ag455
ag456
ag457
ag458
ag459
ag460
ag461
ag462
ag463
ag464
ag465
ag466
ag467
ag468
ag469
ag470
ag471
ag472
ag473
ag474
ag475
ag476
aa(lp972
g837
ag838
aa(lp973
g837
ag838
ag839
ag840
ag841
ag842
ag843
ag844
ag845
aS'-97.7479173744 30.2581273078'
p974
aS'-97.7484256594 30.258638126'
p975
ag480
ag481
ag482
ag483
ag484
ag485
ag486
aa(lp976
S'-97.7499370173 30.2489241733'
p977
ag840
ag841
ag842
ag843
ag844
ag845
ag846
ag847
ag848
ag849
ag850
ag851
ag852
ag853
ag854
ag855
ag856
ag857
ag858
ag859
ag860
ag861
ag862
ag863
ag505
ag506
ag507
ag508
ag509
ag510
ag511
ag512
ag513
ag514
ag515
ag516
ag517
ag518
ag519
ag520
ag521
ag522
ag523
ag524
ag525
ag526
ag527
ag528
aa(lp978
g977
ag840
ag841
ag842
ag843
ag844
ag845
ag846
ag847
ag848
ag865
ag866
ag867
ag868
ag869
ag870
ag871
ag872
ag873
ag874
ag875
ag876
ag877
ag878
ag879
ag880
ag881
ag882
ag883
aa(lp979
g977
ag840
ag841
ag842
ag843
ag844
ag845
ag846
ag847
ag848
ag865
ag866
ag867
ag868
ag869
ag870
ag871
ag872
ag873
ag874
ag875
ag876
ag877
ag878
ag879
ag880
ag881
ag882
ag490
ag491
ag492
ag96
ag97
ag530
ag531
ag532
ag533
ag534
ag535
ag536
ag537
ag538
ag539
ag540
ag541
ag542
ag543
ag116
ag117
aa(lp980
g977
ag145
ag146
aa(lp981
g977
ag840
aa(lp982
g977
ag840
ag841
ag842
ag843
ag844
ag845
ag846
ag847
ag848
ag888
ag889
ag890
ag891
ag892
ag893
ag894
ag895
ag896
ag897
ag898
ag899
ag900
ag901
ag241
ag902
ag903
ag904
ag905
ag906
ag907
ag908
ag909
ag910
ag911
ag912
ag913
ag914
ag915
ag916
ag917
aa(lp983
g977
ag840
ag841
ag842
ag843
ag844
ag845
ag846
ag847
ag848
ag888
ag889
ag919
ag920
ag921
ag922
ag923
ag215
ag216
ag217
ag218
ag219
aa(lp984
g977
ag145
ag146
ag277
ag278
ag279
ag925
ag926
ag927
ag928
ag929
ag930
ag931
ag932
ag933
ag934
ag935
ag936
ag937
ag938
ag939
ag940
ag941
ag942
ag943
ag944
ag945
ag946
ag947
ag948
ag949
ag950
ag951
ag952
ag953
ag954
ag955
ag956
ag957
ag258
ag259
ag260
ag261
ag262
ag263
ag264
ag265
ag266
ag267
ag268
ag269
ag270
ag271
ag272
ag273
ag274
ag275
aa(lp985
g977
ag145
ag146
ag277
ag278
ag279
aa(lp986
g977
ag840
ag841
ag842
ag843
ag844
ag845
ag846
ag847
ag848
ag849
ag850
ag851
ag852
ag960
aa(lp987
g977
ag840
ag841
ag842
ag843
ag844
ag845
ag846
ag847
ag848
ag849
ag850
ag851
ag852
ag853
ag854
ag855
ag856
ag857
ag858
ag859
ag860
ag861
ag862
ag863
ag505
ag506
ag507
ag508
ag509
ag510
ag590
ag591
ag592
ag593
ag594
ag595
ag596
ag597
ag598
ag599
ag600
ag601
ag602
ag603
ag604
ag605
ag606
ag607
ag608
ag609
ag610
ag611
ag612
ag613
ag614
ag615
ag616
ag617
ag618
ag619
ag620
ag621
ag622
ag623
ag624
ag625
ag626
ag627
ag628
ag629
ag630
ag631
ag632
ag633
ag332
ag333
ag334
ag335
ag336
ag337
ag338
ag339
ag340
ag341
ag342
ag343
ag344
ag345
ag346
ag347
ag348
ag349
ag350
ag351
ag352
ag353
ag354
ag355
ag356
ag357
ag358
ag359
ag360
ag361
ag362
ag363
ag364
ag365
ag366
ag367
ag368
ag369
ag370
ag371
ag372
ag373
ag374
ag375
ag376
ag377
ag378
ag379
ag380
ag381
ag382
ag383
ag384
ag385
ag386
ag387
ag388
ag389
ag390
ag391
ag392
ag393
aa(lp988
g977
ag840
ag841
ag842
ag843
ag844
ag845
ag846
ag847
ag848
ag888
ag889
ag890
ag891
ag892
ag893
ag894
ag895
ag896
ag897
ag898
ag899
ag963
ag964
ag965
ag966
ag967
ag968
ag653
ag654
ag655
ag656
ag657
ag658
ag659
ag660
ag661
ag662
ag663
ag664
ag665
ag666
ag667
ag668
ag669
ag670
ag435
ag436
ag437
ag438
ag439
ag440
ag441
ag442
ag443
ag444
ag445
aa(lp989
g977
ag145
ag146
ag277
ag278
ag279
ag925
ag926
ag927
ag928
ag929
ag930
ag931
ag932
ag933
ag934
ag935
ag936
ag937
ag938
ag939
ag940
ag941
ag942
ag943
ag944
ag945
ag946
ag947
ag948
ag949
ag950
ag951
ag952
ag953
ag954
ag970
ag971
ag448
ag449
ag450
ag451
ag452
ag453
ag454
ag455
ag456
ag457
ag458
ag459
ag460
ag461
ag462
ag463
ag464
ag465
ag466
ag467
ag468
ag469
ag470
ag471
ag472
ag473
ag474
ag475
ag476
aa(lp990
g977
ag145
aa(lp991
g977
ag840
ag841
ag842
ag843
ag844
ag845
ag974
ag975
ag480
ag481
ag482
ag483
ag484
ag485
ag486
aa(lp992
S'-97.7495922416 30.24982208'
p993
ag841
ag842
ag843
ag844
ag845
ag846
ag847
ag848
ag849
ag850
ag851
ag852
ag853
ag854
ag855
ag856
ag857
ag858
ag859
ag860
ag861
ag862
ag863
ag505
ag506
ag507
ag508
ag509
ag510
ag511
ag512
ag513
ag514
ag515
ag516
ag517
ag518
ag519
ag520
ag521
ag522
ag523
ag524
ag525
ag526
ag527
ag528
aa(lp994
g993
ag841
ag842
ag843
ag844
ag845
ag846
ag847
ag848
ag865
ag866
ag867
ag868
ag869
ag870
ag871
ag872
ag873
ag874
ag875
ag876
ag877
ag878
ag879
ag880
ag881
ag882
ag883
aa(lp995
g993
ag841
ag842
ag843
ag844
ag845
ag846
ag847
ag848
ag865
ag866
ag867
ag868
ag869
ag870
ag871
ag872
ag873
ag874
ag875
ag876
ag877
ag878
ag879
ag880
ag881
ag882
ag490
ag491
ag492
ag96
ag97
ag530
ag531
ag532
ag533
ag534
ag535
ag536
ag537
ag538
ag539
ag540
ag541
ag542
ag543
ag116
ag117
aa(lp996
g993
ag144
ag145
ag146
aa(lp997
g993
ag144
aa(lp998
g993
ag841
ag842
ag843
ag844
ag845
ag846
ag847
ag848
ag888
ag889
ag890
ag891
ag892
ag893
ag894
ag895
ag896
ag897
ag898
ag899
ag900
ag901
ag241
ag902
ag903
ag904
ag905
ag906
ag907
ag908
ag909
ag910
ag911
ag912
ag913
ag914
ag915
ag916
ag917
aa(lp999
g993
ag841
ag842
ag843
ag844
ag845
ag846
ag847
ag848
ag888
ag889
ag919
ag920
ag921
ag922
ag923
ag215
ag216
ag217
ag218
ag219
aa(lp1000
g993
ag144
ag145
ag146
ag277
ag278
ag279
ag925
ag926
ag927
ag928
ag929
ag930
ag931
ag932
ag933
ag934
ag935
ag936
ag937
ag938
ag939
ag940
ag941
ag942
ag943
ag944
ag945
ag946
ag947
ag948
ag949
ag950
ag951
ag952
ag953
ag954
ag955
ag956
ag957
ag258
ag259
ag260
ag261
ag262
ag263
ag264
ag265
ag266
ag267
ag268
ag269
ag270
ag271
ag272
ag273
ag274
ag275
aa(lp1001
g993
ag144
ag145
ag146
ag277
ag278
ag279
aa(lp1002
g993
ag841
ag842
ag843
ag844
ag845
ag846
ag847
ag848
ag849
ag850
ag851
ag852
ag960
aa(lp1003
g993
ag841
ag842
ag843
ag844
ag845
ag846
ag847
ag848
ag849
ag850
ag851
ag852
ag853
ag854
ag855
ag856
ag857
ag858
ag859
ag860
ag861
ag862
ag863
ag505
ag506
ag507
ag508
ag509
ag510
ag590
ag591
ag592
ag593
ag594
ag595
ag596
ag597
ag598
ag599
ag600
ag601
ag602
ag603
ag604
ag605
ag606
ag607
ag608
ag609
ag610
ag611
ag612
ag613
ag614
ag615
ag616
ag617
ag618
ag619
ag620
ag621
ag622
ag623
ag624
ag625
ag626
ag627
ag628
ag629
ag630
ag631
ag632
ag633
ag332
ag333
ag334
ag335
ag336
ag337
ag338
ag339
ag340
ag341
ag342
ag343
ag344
ag345
ag346
ag347
ag348
ag349
ag350
ag351
ag352
ag353
ag354
ag355
ag356
ag357
ag358
ag359
ag360
ag361
ag362
ag363
ag364
ag365
ag366
ag367
ag368
ag369
ag370
ag371
ag372
ag373
ag374
ag375
ag376
ag377
ag378
ag379
ag380
ag381
ag382
ag383
ag384
ag385
ag386
ag387
ag388
ag389
ag390
ag391
ag392
ag393
aa(lp1004
g993
ag841
ag842
ag843
ag844
ag845
ag846
ag847
ag848
ag888
ag889
ag890
ag891
ag892
ag893
ag894
ag895
ag896
ag897
ag898
ag899
ag963
ag964
ag965
ag966
ag967
ag968
ag653
ag654
ag655
ag656
ag657
ag658
ag659
ag660
ag661
ag662
ag663
ag664
ag665
ag666
ag667
ag668
ag669
ag670
ag435
ag436
ag437
ag438
ag439
ag440
ag441
ag442
ag443
ag444
ag445
aa(lp1005
g993
ag144
ag145
ag146
ag277
ag278
ag279
ag925
ag926
ag927
ag928
ag929
ag930
ag931
ag932
ag933
ag934
ag935
ag936
ag937
ag938
ag939
ag940
ag941
ag942
ag943
ag944
ag945
ag946
ag947
ag948
ag949
ag950
ag951
ag952
ag953
ag954
ag970
ag971
ag448
ag449
ag450
ag451
ag452
ag453
ag454
ag455
ag456
ag457
ag458
ag459
ag460
ag461
ag462
ag463
ag464
ag465
ag466
ag467
ag468
ag469
ag470
ag471
ag472
ag473
ag474
ag475
ag476
aa(lp1006
g993
ag144
ag145
aa(lp1007
g993
ag841
ag842
ag843
ag844
ag845
ag974
ag975
ag480
ag481
ag482
ag483
ag484
ag485
ag486
aa(lp1008
S'-97.7838043382 30.2961270548'
p1009
aS'-97.7822966315 30.295491984'
p1010
aS'-97.7811360114 30.2949160622'
p1011
aS'-97.7799657578 30.2943454392'
p1012
aS'-97.7787257564 30.2937761655'
p1013
aS'-97.7774107641 30.2931668795'
p1014
aS'-97.7761529524 30.292553219'
p1015
aS'-97.7754740981 30.2922178849'
p1016
aS'-97.7720530291 30.2905983768'
p1017
aS'-97.7714106511 30.2902032416'
p1018
aS'-97.769832326 30.289250321'
p1019
aS'-97.7686931987 30.2885867042'
p1020
aS'-97.7685593338 30.2884960149'
p1021
aS'-97.7673860396 30.2878069486'
p1022
aS'-97.7661908814 30.2871064328'
p1023
aS'-97.7655444335 30.28674694'
p1024
aS'-97.7646097927 30.286290907'
p1025
aS'-97.7633018284 30.2856448966'
p1026
aS'-97.7630797076 30.2855341962'
p1027
aS'-97.7625761394 30.2851677081'
p1028
aS'-97.7624253371 30.2850481784'
p1029
aS'-97.761979453 30.2847410965'
p1030
aS'-97.761863193 30.2846763869'
p1031
aS'-97.7602991564 30.2835152118'
p1032
aS'-97.7590727671 30.2830746766'
p1033
aS'-97.7578163441 30.282774399'
p1034
aS'-97.7569569527 30.2825590999'
p1035
aS'-97.7560426599 30.2820264027'
p1036
aS'-97.7549405248 30.2811708802'
p1037
aS'-97.7537114502 30.2803134252'
p1038
aS'-97.7535635025 30.2801873975'
p1039
aS'-97.7531593386 30.280077113'
p1040
aS'-97.752355029 30.2801046464'
p1041
aS'-97.7498407734 30.2798490553'
p1042
aS'-97.7492306543 30.2796410396'
p1043
aS'-97.747286824 30.2791463157'
p1044
aS'-97.7462295053 30.2788407539'
p1045
aS'-97.7451441296 30.2785335717'
p1046
aS'-97.7440566379 30.2782192414'
p1047
aS'-97.742990759 30.2778968946'
p1048
aS'-97.741926268 30.2776045462'
p1049
aS'-97.7408365522 30.277298257'
p1050
aS'-97.7394971118 30.276917595'
p1051
aS'-97.7381938306 30.2765489267'
p1052
aS'-97.737108975 30.2762313172'
p1053
aS'-97.7360290076 30.2759419063'
p1054
aS'-97.7348450029 30.2756176188'
p1055
aS'-97.733904098 30.2753480892'
p1056
aS'-97.7317609291 30.274776639'
p1057
aS'-97.730982583 30.2746110777'
p1058
aS'-97.7308742596 30.2751253108'
p1059
aS'-97.7282370909 30.2808270284'
p1060
ag504
ag505
ag506
ag507
ag508
ag509
ag510
ag511
ag512
ag513
ag514
ag515
ag516
ag517
ag518
ag519
ag520
ag521
ag522
ag523
ag524
ag525
ag526
ag527
ag528
aa(lp1061
g1009
ag1010
ag1011
ag1012
ag1013
ag1014
ag1015
ag1016
ag1017
ag1018
ag1019
ag1020
ag1021
ag1022
ag1023
ag1024
ag1025
ag1026
ag1027
ag1028
ag1029
ag1030
ag1031
ag1032
ag1033
ag1034
ag1035
ag1036
ag1037
ag1038
ag1039
ag1040
ag1041
ag1042
ag1043
ag1044
ag1045
ag1046
ag1047
aS'-97.7437345136 30.2791847032'
p1062
aS'-97.7426023711 30.2788620329'
p1063
aa(lp1064
g1009
ag1010
ag1011
ag1012
ag1013
ag1014
ag1015
ag1016
ag1017
ag1018
ag1019
ag1020
ag1021
ag1022
ag1023
ag1024
ag1025
ag1026
aS'-97.7621822605 30.288096585'
p1065
ag967
aS'-97.7587791408 30.2919211471'
p1066
aS'-97.7588209853 30.2916534171'
p1067
aS'-97.7579927071 30.2912489785'
p1068
aS'-97.7577394334 30.291120124'
p1069
aS'-97.7575053079 30.2910041674'
p1070
aS'-97.7568092662 30.2903478349'
p1071
aS'-97.7562592791 30.2894621695'
p1072
aS'-97.754139366 30.2889161854'
p1073
aS'-97.7527687058 30.2885336626'
p1074
aS'-97.7514629491 30.2884442703'
p1075
aS'-97.7508478657 30.2883947759'
p1076
aS'-97.7504438456 30.2883632282'
p1077
aS'-97.7493273263 30.2883104676'
p1078
aS'-97.7478322752 30.2881620504'
p1079
aS'-97.7467789802 30.2880857899'
p1080
aS'-97.7446818236 30.2879361838'
p1081
aS'-97.7439038071 30.287876461'
p1082
aS'-97.7436579256 30.2878274864'
p1083
aS'-97.7431445022 30.2878281121'
p1084
aS'-97.7426453717 30.2877685171'
p1085
aS'-97.742375916 30.2877713209'
p1086
aS'-97.74155017 30.2877188698'
p1087
ag536
ag537
ag538
ag539
ag540
ag541
ag542
ag543
ag116
ag117
aa(lp1088
g1009
aS'-97.7830621204 30.2915907573'
p1089
aS'-97.7819481322 30.2901063965'
p1090
aS'-97.7810831925 30.2889538466'
p1091
aS'-97.7802591744 30.2878557973'
p1092
aS'-97.7767743657 30.2832117588'
p1093
aS'-97.7764938211 30.2827963633'
p1094
aS'-97.7760364906 30.2825947147'
p1095
aS'-97.7752290862 30.2822100574'
p1096
aS'-97.7743588539 30.2818048871'
p1097
aS'-97.7718139081 30.2806209078'
p1098
aS'-97.7725081254 30.2795374023'
p1099
aS'-97.7731792221 30.2785340977'
p1100
aS'-97.7724367275 30.2780050059'
p1101
aS'-97.7718663999 30.2776873586'
p1102
aS'-97.7714874062 30.2775202628'
p1103
aS'-97.7704832538 30.2772177257'
p1104
aS'-97.7702320976 30.2770875077'
p1105
aS'-97.7677797847 30.2756425591'
p1106
aS'-97.7656464711 30.273527099'
p1107
aS'-97.763594596 30.2712375174'
p1108
aS'-97.7614741783 30.2693693331'
p1109
aS'-97.757094282 30.2669647133'
p1110
aS'-97.7560138759 30.2678946283'
p1111
aS'-97.7558296236 30.2676526603'
p1112
ag677
ag678
aS'-97.7561124486 30.2642163624'
p1113
aS'-97.7543173267 30.2635096272'
p1114
aS'-97.7517432261 30.2621465385'
p1115
aS'-97.7513316895 30.2618753411'
p1116
aS'-97.7495649699 30.260158665'
p1117
aS'-97.7492756546 30.2597581568'
p1118
aS'-97.7484256594 30.258638126'
p1119
aS'-97.7479173744 30.2581273078'
p1120
aS'-97.7468752495 30.2571436558'
p1121
ag139
ag140
ag141
ag142
ag143
ag144
ag145
ag146
aa(lp1122
g1009
ag1089
ag1090
ag1091
ag1092
ag1093
ag1094
ag1095
ag1096
ag1097
ag1098
ag1099
ag1100
ag1101
ag1102
ag1103
ag1104
ag1105
ag1106
ag1107
ag1108
ag1109
ag1110
ag1111
ag1112
ag677
ag678
ag1113
ag1114
ag1115
ag1116
ag1117
ag1118
ag1119
ag1120
ag1121
ag139
ag140
ag141
ag142
ag143
ag144
aa(lp1123
g1009
ag1089
ag1090
ag1091
ag1092
ag1093
ag1094
ag1095
ag1096
ag1097
ag1098
ag1099
ag1100
ag1101
ag1102
ag1103
ag1104
ag1105
ag1106
ag1107
ag1108
ag1109
ag1110
ag1111
ag1112
ag677
ag678
ag1113
ag1114
ag1115
ag1116
ag1117
ag1118
ag1119
ag1120
ag1121
ag139
ag140
ag141
ag142
ag143
aa(lp1124
g1009
ag1089
ag1090
ag1091
ag1092
ag1093
ag1094
ag1095
ag1096
ag1097
ag1098
ag1099
ag1100
ag1101
ag1102
ag1103
ag1104
ag1105
aS'-97.7677576489 30.2764862198'
p1125
aS'-97.7655008184 30.2753420941'
p1126
aS'-97.7648403682 30.2748569009'
p1127
aS'-97.7633183001 30.273706998'
p1128
aS'-97.7625899333 30.2734289058'
p1129
aS'-97.7618421881 30.2731230824'
p1130
aS'-97.7614096442 30.2729572755'
p1131
aS'-97.7608310755 30.2727230213'
p1132
aS'-97.7592462108 30.2720548224'
p1133
aS'-97.7581740241 30.2716537332'
p1134
aS'-97.7573167264 30.2713339643'
p1135
aS'-97.7560367296 30.2708544201'
p1136
aS'-97.7547431208 30.2703499189'
p1137
aS'-97.7546015798 30.2702905787'
p1138
aS'-97.7544527124 30.2702362882'
p1139
aS'-97.7531704592 30.2697378575'
p1140
aS'-97.7509543699 30.2693109173'
p1141
aS'-97.7505858011 30.2702963604'
p1142
aa(lp1143
g1009
ag1089
ag1090
ag1091
ag1092
ag1093
ag1094
ag1095
ag1096
ag1097
ag1098
ag1099
ag1100
ag1101
ag1102
ag1103
ag1104
ag242
ag243
ag244
ag245
ag246
ag247
ag248
ag249
ag250
ag251
ag252
ag253
ag254
ag255
ag256
ag257
ag258
ag259
ag260
ag261
ag262
ag263
ag264
ag265
ag266
ag267
ag268
ag269
ag270
ag271
ag272
ag273
ag274
ag275
aa(lp1144
g1009
ag1089
ag1090
ag1091
ag1092
ag1093
ag1094
ag1095
ag1096
ag1097
ag1098
ag1099
ag1100
ag1101
ag1102
ag1103
ag1104
ag1105
ag1106
ag1107
ag1108
ag1109
ag1110
ag1111
ag1112
ag677
ag678
ag1113
ag1114
ag1115
ag1116
ag1117
ag1118
ag1119
ag1120
ag1121
ag139
ag140
ag141
ag142
ag143
ag144
ag145
ag146
ag277
ag278
ag279
aa(lp1145
g1009
ag1089
ag1090
ag1091
ag1092
ag1093
ag1094
ag1095
ag1096
ag1097
ag1098
ag1099
ag1100
ag1101
ag1102
ag1103
ag1104
ag1105
ag1125
ag1126
ag1127
ag1128
ag1129
ag1130
ag1131
ag1132
ag1133
ag1134
ag1135
ag1136
ag1137
ag1138
ag1139
ag1140
ag1141
aS'-97.749869602 30.2689975145'
p1146
aS'-97.7487786546 30.2686784779'
p1147
aS'-97.7477061264 30.2683818053'
p1148
aS'-97.7466333839 30.2680933713'
p1149
aS'-97.7455450348 30.267796361'
p1150
aS'-97.7444699482 30.2674776066'
p1151
aS'-97.7431709874 30.2671185642'
p1152
aS'-97.7418372748 30.2667560544'
p1153
aS'-97.7407337123 30.2664366923'
p1154
aS'-97.7396772889 30.2661320273'
p1155
aS'-97.7385887617 30.2658432045'
p1156
aS'-97.7374841331 30.2655347938'
p1157
ag282
ag283
aa(lp1158
g1009
ag1010
ag1011
ag1012
ag1013
ag1014
ag1015
ag1016
ag1017
ag1018
ag1019
ag1020
ag1021
ag1022
ag1023
ag1024
ag1025
ag1026
ag1027
ag1028
ag1029
ag1030
ag1031
ag1032
ag1033
ag1034
ag1035
ag1036
ag1037
ag1038
ag1039
ag1040
ag1041
ag1042
ag1043
ag1044
ag1045
ag1046
ag1047
ag1048
ag1049
ag1050
ag1051
ag1052
ag1053
ag1054
ag1055
ag1056
ag1057
ag1058
ag1059
ag1060
ag504
ag505
ag506
ag507
ag508
ag509
ag510
ag590
ag591
ag592
ag593
ag594
ag595
ag596
ag597
ag598
ag599
ag600
ag601
ag602
ag603
ag604
ag605
ag606
ag607
ag608
ag609
ag610
ag611
ag612
ag613
ag614
ag615
ag616
ag617
ag618
ag619
ag620
ag621
ag622
ag623
ag624
ag625
ag626
ag627
ag628
ag629
ag630
ag631
ag632
ag633
ag332
ag333
ag334
ag335
ag336
ag337
ag338
ag339
ag340
ag341
ag342
ag343
ag344
ag345
ag346
ag347
ag348
ag349
ag350
ag351
ag352
ag353
ag354
ag355
ag356
ag357
ag358
ag359
ag360
ag361
ag362
ag363
ag364
ag365
ag366
ag367
ag368
ag369
ag370
ag371
ag372
ag373
ag374
ag375
ag376
ag377
ag378
ag379
ag380
ag381
ag382
ag383
ag384
ag385
ag386
ag387
ag388
ag389
ag390
ag391
ag392
ag393
aa(lp1159
g1009
ag1010
ag1011
ag1012
ag1013
ag1014
ag1015
ag1016
ag1017
ag1018
ag1019
ag1020
ag1021
ag1022
ag1023
ag1024
ag1025
ag1026
ag1065
ag967
ag968
ag653
ag654
ag655
ag656
ag657
ag658
ag659
ag660
ag661
ag662
ag663
ag664
ag665
ag666
ag667
ag668
ag669
ag670
ag435
ag436
ag437
ag438
ag439
ag440
ag441
ag442
ag443
ag444
ag445
aa(lp1160
g1009
ag1089
ag1090
ag1091
ag1092
ag1093
ag1094
ag1095
ag1096
ag1097
ag1098
ag1099
ag1100
ag1101
ag1102
ag1103
ag1104
ag242
ag243
ag244
ag245
ag246
ag247
ag248
ag249
ag250
ag251
ag252
ag253
ag254
ag255
ag447
ag448
ag449
ag450
ag451
ag452
ag453
ag454
ag455
ag456
ag457
ag458
ag459
ag460
ag461
ag462
ag463
ag464
ag465
ag466
ag467
ag468
ag469
ag470
ag471
ag472
ag473
ag474
ag475
ag476
aa(lp1161
g1009
ag1089
ag1090
ag1091
ag1092
ag1093
ag1094
ag1095
ag1096
ag1097
ag1098
ag1099
ag1100
ag1101
ag1102
ag1103
ag1104
ag1105
ag1106
ag1107
ag1108
ag1109
ag1110
ag1111
ag1112
ag677
ag678
ag1113
ag1114
ag1115
ag1116
ag1117
ag1118
ag1119
ag1120
ag1121
ag139
ag140
ag141
ag142
ag143
ag144
ag145
aa(lp1162
g1009
ag1089
ag1090
ag1091
ag1092
ag1093
ag1094
ag1095
ag1096
ag1097
ag1098
ag1099
ag1100
ag1101
ag1102
ag1103
ag1104
ag1105
ag1106
ag1107
ag1108
ag1109
ag1110
ag1111
ag1112
ag677
ag678
ag679
ag680
ag681
ag485
ag486
aa(lp1163
S'-97.7505858011 30.2702963604'
p1164
aS'-97.7502387281 30.2711887247'
p1165
aS'-97.7491537207 30.2708835632'
p1166
aS'-97.7480656268 30.2705755788'
p1167
aS'-97.7470031685 30.2702571013'
p1168
aS'-97.7459337214 30.2699632275'
p1169
ag580
ag581
ag582
ag583
ag584
ag585
ag586
ag587
aS'-97.7357883342 30.26712038'
p1170
aS'-97.7346660871 30.2668212141'
p1171
aS'-97.7338587612 30.2665714982'
p1172
aS'-97.7335022506 30.2675030689'
p1173
aS'-97.7334263758 30.2677120956'
p1174
aS'-97.7330008526 30.26888457'
p1175
aS'-97.7328911542 30.2702033634'
p1176
ag860
ag861
ag862
ag863
ag505
ag506
ag507
ag508
ag509
ag510
ag511
ag512
ag513
ag514
ag515
ag516
ag517
ag518
ag519
ag520
ag521
ag522
ag523
ag524
ag525
ag526
ag527
ag528
aa(lp1177
g1164
ag1165
aS'-97.7499133013 30.2721007769'
p1178
aS'-97.7495425007 30.2730504183'
p1179
aS'-97.7492170621 30.2739624689'
p1180
aS'-97.7488513901 30.2749094077'
p1181
aS'-97.7484296799 30.2760589871'
p1182
aS'-97.7473566193 30.2757637597'
p1183
aS'-97.7462727942 30.2754648967'
p1184
aS'-97.7452039756 30.2751526021'
p1185
aS'-97.7447751014 30.2763041165'
p1186
aS'-97.7444389997 30.277257196'
p1187
aS'-97.7440566379 30.2782192414'
p1188
ag1062
ag1063
aa(lp1189
g1164
ag1165
ag1178
ag1179
ag1180
ag1181
ag1182
ag1183
aS'-97.7469388105 30.2769171266'
p1190
aS'-97.7467974685 30.277343327'
p1191
aS'-97.7465868176 30.277872641'
p1192
aS'-97.7462295053 30.2788407539'
p1193
aS'-97.7458764776 30.2797835391'
p1194
aS'-97.7455574624 30.2806902119'
p1195
aS'-97.7452366017 30.281547339'
p1196
aS'-97.7448327192 30.2825458078'
p1197
aS'-97.744187481 30.2823815037'
p1198
aS'-97.7437413405 30.2822377226'
p1199
aS'-97.7432158721 30.2820978372'
p1200
aS'-97.7426874594 30.2819496383'
p1201
aS'-97.7419244151 30.2817330505'
p1202
ag530
ag531
ag532
ag533
ag534
ag535
ag536
ag537
ag538
ag539
ag540
ag541
ag542
ag543
ag116
ag117
aa(lp1203
g1164
aS'-97.7509543699 30.2693109173'
p1204
ag1146
ag1147
ag1148
ag1149
ag556
ag557
ag558
ag559
ag560
ag561
ag562
ag136
ag137
ag138
ag139
ag140
ag141
ag142
ag143
ag144
ag145
ag146
aa(lp1205
g1164
ag1204
ag1146
ag1147
ag1148
ag1149
ag556
ag557
ag558
ag559
ag560
ag561
ag562
ag136
ag137
ag138
ag139
ag140
ag141
ag142
ag143
ag144
aa(lp1206
g1164
ag1204
ag1146
ag1147
ag1148
ag1149
ag556
ag557
ag558
ag559
ag560
ag561
ag562
ag136
ag137
ag138
ag139
ag140
ag141
ag142
ag143
aa(lp1207
g1164
ag221
ag222
ag223
ag224
ag225
ag226
ag227
ag228
ag229
ag230
ag231
ag232
ag233
ag234
ag235
ag236
ag237
ag238
ag239
ag240
ag241
ag902
ag903
ag904
ag905
ag906
ag907
ag908
ag909
ag910
ag911
ag912
ag913
ag914
ag915
ag916
ag917
aa(lp1208
g1164
ag221
ag222
ag223
ag224
ag225
ag226
ag227
ag228
ag229
ag230
ag231
ag232
ag233
ag234
ag235
ag236
ag237
ag238
ag239
ag240
ag241
ag242
ag243
ag244
ag245
ag246
ag247
ag248
ag249
ag250
ag251
ag252
ag253
ag254
ag255
ag256
ag257
ag258
ag259
ag260
ag261
ag262
ag263
ag264
ag265
ag266
ag267
ag268
ag269
ag270
ag271
ag272
ag273
ag274
ag275
aa(lp1209
g1164
ag1204
ag1146
ag1147
ag1148
ag1149
ag556
ag557
ag558
ag559
ag560
ag561
ag562
ag136
ag137
ag138
ag139
ag140
ag141
ag142
ag143
ag144
ag145
ag146
ag277
ag278
ag279
aa(lp1210
g1164
ag1204
ag1146
ag1147
ag1148
ag1149
ag1150
ag1151
ag1152
ag1153
ag1154
ag1155
ag1156
ag1157
ag282
ag283
aa(lp1211
g1164
ag1165
ag1166
ag1167
ag1168
ag1169
ag580
ag581
ag582
ag583
ag584
ag585
ag586
ag587
ag1170
ag1171
ag1172
ag1173
ag1174
ag1175
ag1176
ag860
ag861
ag862
ag863
ag505
ag506
ag507
ag508
ag509
ag510
ag590
ag591
ag592
ag593
ag594
ag595
ag596
ag597
ag598
ag599
ag600
ag601
ag602
ag603
ag604
ag605
ag606
ag607
ag608
ag609
ag610
ag611
ag612
ag613
ag614
ag615
ag616
ag617
ag618
ag619
ag620
ag621
ag622
ag623
ag624
ag625
ag626
ag627
ag628
ag629
ag630
ag631
ag632
ag633
ag332
ag333
ag334
ag335
ag336
ag337
ag338
ag339
ag340
ag341
ag342
ag343
ag344
ag345
ag346
ag347
ag348
ag349
ag350
ag351
ag352
ag353
ag354
ag355
ag356
ag357
ag358
ag359
ag360
ag361
ag362
ag363
ag364
ag365
ag366
ag367
ag368
ag369
ag370
ag371
ag372
ag373
ag374
ag375
ag376
ag377
ag378
ag379
ag380
ag381
ag382
ag383
ag384
ag385
ag386
ag387
ag388
ag389
ag390
ag391
ag392
ag393
aa(lp1212
g1164
ag221
ag222
ag223
ag224
ag225
ag226
ag227
ag228
ag229
ag230
ag231
ag232
ag233
ag234
ag235
ag236
ag237
ag238
aS'-97.7670593717 30.2774851843'
p1213
aS'-97.7666963857 30.2801798104'
p1214
ag964
ag965
ag966
ag967
ag968
ag653
ag654
ag655
ag656
ag657
ag658
ag659
ag660
ag661
ag662
ag663
ag664
ag665
ag666
ag667
ag668
ag669
ag670
ag435
ag436
ag437
ag438
ag439
ag440
ag441
ag442
ag443
ag444
ag445
aa(lp1215
g1164
ag221
ag222
ag223
ag224
ag225
ag226
ag227
ag228
ag229
ag230
ag231
ag232
ag233
ag234
ag235
ag236
ag237
ag238
ag239
ag240
ag241
ag242
ag243
ag244
ag245
ag246
ag247
ag248
ag249
ag250
ag251
ag252
ag253
ag254
ag255
ag447
ag448
ag449
ag450
ag451
ag452
ag453
ag454
ag455
ag456
ag457
ag458
ag459
ag460
ag461
ag462
ag463
ag464
ag465
ag466
ag467
ag468
ag469
ag470
ag471
ag472
ag473
ag474
ag475
ag476
aa(lp1216
g1164
ag1204
ag1146
ag1147
ag1148
ag1149
ag556
ag557
ag558
ag559
ag560
ag561
ag562
ag136
ag137
ag138
ag139
ag140
ag141
ag142
ag143
ag144
ag145
aa(lp1217
g1164
ag221
ag222
ag223
ag224
ag674
ag675
ag676
ag677
ag678
ag679
ag680
ag681
ag485
ag486
aa(lp1218
S'-97.881170923 30.2454610276'
p1219
aS'-97.8823213146 30.2465638945'
p1220
aS'-97.8829850128 30.2471196299'
p1221
aS'-97.8866855477 30.2499751303'
p1222
aS'-97.8884394263 30.2470661151'
p1223
aS'-97.8799608178 30.2394780449'
p1224
aS'-97.878340093 30.2371010224'
p1225
aS'-97.8757802743 30.2346949633'
p1226
aS'-97.8747001399 30.2333428067'
p1227
aS'-97.8720520278 30.2339390032'
p1228
aS'-97.8716370422 30.2339651865'
p1229
aS'-97.871223244 30.2339920247'
p1230
aS'-97.8648300015 30.2340559652'
p1231
aS'-97.8606443431 30.2352964889'
p1232
aS'-97.8599559934 30.2353749756'
p1233
aS'-97.8586305401 30.2350987047'
p1234
aS'-97.8577336672 30.2349498116'
p1235
aS'-97.8566607652 30.2349950225'
p1236
aS'-97.8457809458 30.236200808'
p1237
aS'-97.8404196678 30.2364478729'
p1238
aS'-97.8318589954 30.2364464371'
p1239
aS'-97.8200004758 30.2383639064'
p1240
aS'-97.8149901192 30.2406594676'
p1241
aS'-97.8098597406 30.2431869362'
p1242
aS'-97.8023629012 30.2518903646'
p1243
aS'-97.7943677062 30.2599958534'
p1244
aS'-97.7896839212 30.2626029608'
p1245
aS'-97.7827462694 30.2655417126'
p1246
aS'-97.777948961 30.2679933633'
p1247
aS'-97.7715100815 30.2737594797'
p1248
aS'-97.7710445495 30.2743511729'
p1249
aS'-97.7693164085 30.2750974516'
p1250
aS'-97.7677576489 30.2764862198'
p1251
ag1126
ag1127
ag1128
ag1129
ag1130
ag1131
ag1132
ag1133
ag1134
ag1135
ag1136
ag1137
ag1138
ag1139
ag1140
ag1141
ag1146
ag1147
ag1148
ag1149
ag1150
ag1151
ag1152
ag1153
aS'-97.7414543396 30.2676834251'
p1252
aS'-97.7411096192 30.2686033169'
p1253
ag584
ag585
ag586
ag587
ag1170
ag1171
ag1172
ag1173
ag1174
ag1175
ag1176
ag860
ag861
ag862
ag863
ag505
ag506
ag507
ag508
ag509
ag510
ag511
ag512
ag513
ag514
ag515
ag516
ag517
ag518
ag519
ag520
ag521
ag522
ag523
ag524
ag525
ag526
ag527
ag528
aa(lp1254
g1219
ag1220
ag1221
ag1222
ag1223
ag1224
ag1225
ag1226
ag1227
ag1228
ag1229
ag1230
ag1231
ag1232
ag1233
ag1234
ag1235
ag1236
ag1237
ag1238
ag1239
ag1240
ag1241
ag1242
ag1243
ag1244
ag1245
ag1246
ag1247
ag1248
ag1249
ag1250
ag1251
ag1126
ag1127
ag1128
ag1129
ag1130
ag1131
ag1132
ag1133
ag1134
ag1135
ag1136
ag1137
ag1138
aS'-97.7539638316 30.2715383862'
p1255
aS'-97.7527737429 30.2739487473'
p1256
aS'-97.7522775738 30.2750170242'
p1257
aS'-97.751826172 30.2759595479'
p1258
aS'-97.7513978699 30.2768970351'
p1259
aS'-97.7511644648 30.2773598896'
p1260
aS'-97.750665545 30.2788458821'
p1261
aS'-97.7501585354 30.2796850504'
p1262
aS'-97.7492306543 30.2796410396'
p1263
ag1044
ag1045
ag1046
ag1047
ag1062
ag1063
aa(lp1264
g1219
ag1220
ag1221
ag1222
ag1223
ag1224
ag1225
ag1226
ag1227
ag1228
ag1229
ag1230
ag1231
ag1232
ag1233
ag1234
ag1235
ag1236
ag1237
ag1238
ag1239
ag1240
ag1241
ag1242
ag1243
ag1244
ag1245
ag1246
ag1247
ag1248
ag1249
aS'-97.7681262405 30.2783083755'
p1265
aS'-97.7651495857 30.2837218037'
p1266
ag966
ag967
ag1066
ag1067
ag1068
ag1069
ag1070
ag1071
ag1072
ag1073
ag1074
ag1075
ag1076
ag1077
ag1078
ag1079
ag1080
ag1081
ag1082
ag1083
ag1084
ag1085
ag1086
ag1087
ag536
ag537
ag538
ag539
ag540
ag541
ag542
ag543
ag116
ag117
aa(lp1267
g1219
ag1220
ag1221
ag1222
ag1223
ag1224
ag1225
ag1226
ag1227
ag1228
ag1229
ag1230
ag1231
ag1232
ag1233
ag1234
ag1235
ag1236
ag1237
ag1238
ag1239
aS'-97.8245453727 30.2352629959'
p1268
aS'-97.8207512905 30.2334896363'
p1269
aS'-97.8192775092 30.2330467612'
p1270
aS'-97.8180263903 30.2329120599'
p1271
aS'-97.8113098429 30.233434998'
p1272
aS'-97.8075399659 30.2321404897'
p1273
aS'-97.8033082974 30.2318509214'
p1274
aS'-97.8024713931 30.2319926676'
p1275
aS'-97.7934530677 30.2323376483'
p1276
aS'-97.7871495952 30.2293073201'
p1277
aS'-97.7813228192 30.2277631179'
p1278
aS'-97.7772891325 30.2275726422'
p1279
aS'-97.769536153 30.2265551293'
p1280
aS'-97.7651248532 30.2230985156'
p1281
aS'-97.7641710192 30.2224788259'
p1282
aS'-97.7635980367 30.2234098926'
p1283
aS'-97.7631266341 30.2242734671'
p1284
aS'-97.7625051906 30.2253812004'
p1285
aS'-97.7622645942 30.2259126834'
p1286
aS'-97.7616259595 30.2271787616'
p1287
aS'-97.7611908021 30.2280583776'
p1288
aS'-97.7602077297 30.2296503214'
p1289
aS'-97.759803219 30.2303297748'
p1290
aS'-97.75934011 30.2310685575'
p1291
aS'-97.7588943608 30.2317499299'
p1292
aS'-97.7584604628 30.2324617936'
p1293
aS'-97.7563647387 30.2355082639'
p1294
aS'-97.7548877289 30.2372057465'
p1295
aS'-97.7535190324 30.2387596268'
p1296
aS'-97.752857607 30.2398279818'
p1297
aS'-97.7526994481 30.2408059208'
p1298
aS'-97.7525268227 30.2418521062'
p1299
aS'-97.7521719543 30.2429102417'
p1300
aS'-97.751912358 30.2435265861'
p1301
aS'-97.751630177 30.2442469865'
p1302
aS'-97.7513036386 30.2451452644'
p1303
aS'-97.7509662737 30.2460928302'
p1304
aS'-97.750624593 30.2470238054'
p1305
aa(lp1306
g1219
ag1220
ag1221
ag1222
ag1223
ag1224
ag1225
ag1226
ag1227
ag1228
ag1229
ag1230
ag1231
ag1232
ag1233
ag1234
ag1235
ag1236
ag1237
ag1238
ag1239
ag1268
ag1269
ag1270
ag1271
ag1272
ag1273
ag1274
ag1275
ag1276
ag1277
ag1278
ag1279
ag1280
ag1281
ag1282
ag1283
ag1284
ag1285
ag1286
ag1287
ag1288
ag1289
ag1290
ag1291
ag1292
ag1293
ag1294
ag1295
ag1296
ag1297
ag1298
ag1299
ag1300
ag1301
ag1302
ag1303
ag1304
ag1305
ag838
ag839
aa(lp1307
g1219
ag1220
ag1221
ag1222
ag1223
ag1224
ag1225
ag1226
ag1227
ag1228
ag1229
ag1230
ag1231
ag1232
ag1233
ag1234
ag1235
ag1236
ag1237
ag1238
ag1239
ag1268
ag1269
ag1270
ag1271
ag1272
ag1273
ag1274
ag1275
ag1276
ag1277
ag1278
ag1279
ag1280
ag1281
ag1282
ag1283
ag1284
ag1285
ag1286
ag1287
ag1288
ag1289
ag1290
ag1291
ag1292
ag1293
ag1294
ag1295
ag1296
ag1297
ag1298
ag1299
ag1300
ag1301
ag1302
ag1303
ag1304
ag1305
ag838
ag839
ag840
aa(lp1308
g1219
ag1220
ag1221
ag1222
ag1223
ag1224
ag1225
ag1226
ag1227
ag1228
ag1229
ag1230
ag1231
ag1232
ag1233
ag1234
ag1235
ag1236
ag1237
ag1238
ag1239
ag1240
ag1241
ag1242
ag1243
ag1244
ag1245
ag1246
ag1247
ag1248
ag1249
ag1250
ag1251
aS'-97.767745888 30.2766533146'
p1309
ag240
ag241
ag902
ag903
ag904
ag905
ag906
ag907
ag908
ag909
ag910
ag911
ag912
ag913
ag914
ag915
ag916
ag917
aa(lp1310
g1219
ag1220
ag1221
ag1222
ag1223
ag1224
ag1225
ag1226
ag1227
ag1228
ag1229
ag1230
ag1231
ag1232
ag1233
ag1234
ag1235
ag1236
ag1237
ag1238
ag1239
ag1240
ag1241
ag1242
ag1243
ag1244
ag1245
ag1246
ag1247
ag1248
ag1249
ag1250
ag1251
ag1126
ag1127
ag1128
ag1129
ag1130
ag1131
ag1132
ag1133
ag1134
ag1135
ag1136
ag1137
ag1138
ag1139
ag1140
ag1141
ag1142
aa(lp1311
g1219
ag1220
ag1221
ag1222
ag1223
ag1224
ag1225
ag1226
ag1227
ag1228
ag1229
ag1230
ag1231
ag1232
ag1233
ag1234
ag1235
ag1236
ag1237
ag1238
ag1239
ag1268
ag1269
ag1270
ag1271
ag1272
ag1273
ag1274
ag1275
ag1276
ag1277
ag1278
ag1279
ag1280
ag1281
ag1282
ag1283
ag1284
ag1285
ag1286
ag1287
ag1288
ag1289
ag1290
ag1291
ag1292
ag1293
ag1294
ag1295
ag1296
ag1297
ag1298
ag1299
ag1300
ag1301
ag1302
aa(lp1312
g1219
ag1220
ag1221
ag1222
ag1223
ag1224
ag1225
ag1226
ag1227
ag1228
ag1229
ag1230
ag1231
ag1232
ag1233
ag1234
ag1235
ag1236
ag1237
ag1238
ag1239
ag1240
ag1241
ag1242
ag1243
ag1244
ag1245
ag1246
ag1247
ag1248
ag1249
ag1250
aS'-97.7656464711 30.273527099'
p1313
ag1108
ag1109
ag1110
aS'-97.7555386412 30.2664345938'
p1314
aS'-97.7535238708 30.2659932996'
p1315
aS'-97.7523540914 30.2656381931'
p1316
aS'-97.7501606043 30.2649725285'
p1317
aS'-97.7491176295 30.26465607'
p1318
aS'-97.7480005905 30.2643667524'
p1319
ag560
ag561
ag562
ag849
ag850
ag851
ag852
ag960
aa(lp1320
g1219
ag1220
ag1221
ag1222
ag1223
ag1224
ag1225
ag1226
ag1227
ag1228
ag1229
ag1230
ag1231
ag1232
ag1233
ag1234
ag1235
ag1236
ag1237
ag1238
ag1239
ag1268
ag1269
ag1270
ag1271
ag1272
ag1273
ag1274
ag1275
ag1276
ag1277
ag1278
ag1279
ag1280
aS'-97.7648182124 30.2233763092'
p1321
aS'-97.7639243013 30.2228255323'
p1322
aS'-97.7615035227 30.2214301379'
p1323
aS'-97.7601729299 30.2207828014'
p1324
aS'-97.7547280477 30.2177854197'
p1325
aS'-97.7490637348 30.2161570788'
p1326
aS'-97.7434776572 30.2160941236'
p1327
aS'-97.7366224154 30.215363075'
p1328
aS'-97.7160950008 30.2127784194'
p1329
aS'-97.7122174685 30.2122086159'
p1330
aS'-97.6986731877 30.2155323182'
p1331
aS'-97.690488872 30.2182848097'
p1332
aS'-97.6880993019 30.2193788808'
p1333
aS'-97.6868760077 30.2200150176'
p1334
aS'-97.6859451797 30.2205541029'
p1335
aS'-97.6824739999 30.2219450014'
p1336
aS'-97.679700106 30.2223886176'
p1337
aS'-97.6782878715 30.2223208431'
p1338
aS'-97.6741578281 30.2210084954'
p1339
aS'-97.669087546 30.2184425533'
p1340
aS'-97.6681071794 30.2179216601'
p1341
aS'-97.6639191631 30.2156927142'
p1342
aS'-97.653744787 30.2102721584'
p1343
aS'-97.6525324655 30.2098573859'
p1344
aS'-97.6511481264 30.2091819468'
p1345
aS'-97.645907165 30.2064914862'
p1346
aS'-97.6415720116 30.2041026418'
p1347
aS'-97.639691779 30.203140235'
p1348
aS'-97.638369197 30.2024742659'
p1349
aS'-97.6378653069 30.2022277788'
p1350
aS'-97.636201972 30.2013666251'
p1351
aS'-97.6330893553 30.199154149'
p1352
aS'-97.622248001 30.20455556'
p1353
aS'-97.6222331499 30.2084403224'
p1354
aS'-97.6222325388 30.2100394744'
p1355
aS'-97.6223108446 30.2204679043'
p1356
aS'-97.6149427925 30.237361946'
p1357
aS'-97.6144425899 30.2381447042'
p1358
aS'-97.6116095097 30.2426367275'
p1359
aS'-97.6041408771 30.2535124491'
p1360
aS'-97.6015701458 30.2576176441'
p1361
aS'-97.58172143 30.2808174865'
p1362
aS'-97.5691747335 30.3060041104'
p1363
aS'-97.5699584496 30.309292285'
p1364
aS'-97.5707386642 30.3112183558'
p1365
aS'-97.5846999759 30.3293402052'
p1366
aS'-97.5878881513 30.3349638611'
p1367
aS'-97.5903105203 30.3403419682'
p1368
aS'-97.5898668005 30.3404925511'
p1369
aS'-97.5873118471 30.3416091356'
p1370
aS'-97.5854348466 30.3426338999'
p1371
ag633
ag332
ag333
ag334
ag335
ag336
ag337
ag338
ag339
ag340
ag341
ag342
ag343
ag344
ag345
ag346
ag347
ag348
ag349
ag350
ag351
ag352
ag353
ag354
ag355
ag356
ag357
ag358
ag359
ag360
ag361
ag362
ag363
ag364
ag365
ag366
ag367
ag368
ag369
ag370
ag371
ag372
ag373
ag374
ag375
ag376
ag377
ag378
ag379
ag380
ag381
ag382
ag383
ag384
ag385
ag386
ag387
ag388
ag389
ag390
ag391
ag392
ag393
aa(lp1372
g1219
ag1220
ag1221
ag1222
ag1223
ag1224
ag1225
ag1226
ag1227
ag1228
ag1229
ag1230
ag1231
ag1232
ag1233
ag1234
ag1235
ag1236
ag1237
ag1238
ag1239
ag1240
ag1241
ag1242
ag1243
ag1244
ag1245
ag1246
ag1247
ag1248
ag1249
ag1265
ag1266
ag966
ag967
ag968
ag653
ag654
ag655
ag656
ag657
ag658
ag659
ag660
ag661
ag662
ag663
ag664
ag665
ag666
ag667
ag668
ag669
ag670
ag435
ag436
ag437
ag438
ag439
ag440
ag441
ag442
ag443
ag444
ag445
aa(lp1373
g1219
ag1220
ag1221
ag1222
ag1223
ag1224
ag1225
ag1226
ag1227
aS'-97.8764581204 30.2324513236'
p1374
aS'-97.8774527243 30.2318603077'
p1375
aS'-97.8792925033 30.2307826776'
p1376
aS'-97.8883046276 30.2291948655'
p1377
aS'-97.8913048746 30.224105615'
p1378
aS'-97.8918207231 30.2232670806'
p1379
aS'-97.8926006665 30.2219968926'
p1380
aS'-97.8930628464 30.2212533621'
p1381
aS'-97.8936189962 30.2200645544'
p1382
aS'-97.8943473857 30.2182756141'
p1383
aS'-97.8964614215 30.2143852062'
p1384
aS'-97.897446643 30.2129005845'
p1385
aS'-97.8989186557 30.2106836899'
p1386
aS'-97.9040133463 30.2093991582'
p1387
aS'-97.91027343 30.2072791532'
p1388
aS'-97.9110648708 30.20605454'
p1389
aS'-97.9158458262 30.2037922016'
p1390
aS'-97.9185795508 30.2021405107'
p1391
aS'-97.9195179486 30.2006711548'
p1392
aS'-97.9199062375 30.2000545026'
p1393
aS'-97.921172031 30.1981060011'
p1394
aS'-97.9241054681 30.1936687367'
p1395
aS'-97.9243716285 30.1933323313'
p1396
ag462
ag463
ag464
ag465
ag466
ag467
ag468
ag469
ag470
ag471
ag472
ag473
ag474
ag475
ag476
aa(lp1397
g1219
ag1220
ag1221
ag1222
ag1223
ag1224
ag1225
ag1226
ag1227
ag1228
ag1229
ag1230
ag1231
ag1232
ag1233
ag1234
ag1235
ag1236
ag1237
ag1238
ag1239
ag1268
ag1269
ag1270
ag1271
ag1272
ag1273
ag1274
ag1275
ag1276
ag1277
ag1278
ag1279
ag1280
ag1281
ag1282
ag1283
ag1284
ag1285
ag1286
ag1287
ag1288
ag1289
ag1290
ag1291
ag1292
ag1293
ag1294
ag1295
ag1296
ag1297
ag1298
ag1299
ag1300
ag1301
ag1302
ag1303
ag1304
ag1305
ag838
aa(lp1398
g1219
ag1220
ag1221
ag1222
ag1223
ag1224
ag1225
ag1226
ag1227
ag1228
ag1229
ag1230
ag1231
ag1232
ag1233
ag1234
ag1235
ag1236
ag1237
ag1238
ag1239
ag1268
ag1269
ag1270
ag1271
ag1272
ag1273
ag1274
ag1275
aS'-97.8002726823 30.2321761586'
p1399
aS'-97.7981544649 30.2325373902'
p1400
aS'-97.7966618893 30.2336831543'
p1401
aS'-97.7956463555 30.2342694533'
p1402
aS'-97.7949777512 30.2346466927'
p1403
aS'-97.7925904635 30.2362595289'
p1404
aS'-97.789282697 30.2386700886'
p1405
aS'-97.7853608702 30.2413991891'
p1406
aS'-97.7846430209 30.2418937162'
p1407
aS'-97.7839758076 30.2424497539'
p1408
aS'-97.7823602051 30.2436524821'
p1409
aS'-97.7813970702 30.2442576199'
p1410
aS'-97.7798431187 30.2453511203'
p1411
aS'-97.7786819957 30.2461562281'
p1412
aS'-97.7781146906 30.2464885113'
p1413
aS'-97.7771831095 30.2469239208'
p1414
aS'-97.7752245395 30.247264947'
p1415
aS'-97.7742289375 30.2474043061'
p1416
aS'-97.7728167378 30.2476460857'
p1417
aS'-97.7720162971 30.2478523655'
p1418
aS'-97.7707571679 30.2482118445'
p1419
aS'-97.7699473517 30.2484129458'
p1420
aS'-97.7685325199 30.2488887892'
p1421
aS'-97.7674443397 30.2494114532'
p1422
aS'-97.765129693 30.2512071294'
p1423
aS'-97.7625872419 30.2542475041'
p1424
aS'-97.7621573138 30.2549264589'
p1425
aS'-97.7614905568 30.2560517113'
p1426
aS'-97.7601507837 30.2575842467'
p1427
aa(lp1428
S'-97.751630177 30.2442469865'
p1429
ag1303
ag1304
ag1305
ag838
ag839
ag840
ag841
ag842
ag843
ag844
ag845
ag846
ag847
ag848
ag849
ag850
ag851
ag852
ag853
ag854
ag855
ag856
ag857
ag858
ag859
ag860
ag861
ag862
ag863
ag505
ag506
ag507
ag508
ag509
ag510
ag511
ag512
ag513
ag514
ag515
ag516
ag517
ag518
ag519
ag520
ag521
ag522
ag523
ag524
ag525
ag526
ag527
ag528
aa(lp1430
g1429
ag1303
ag1304
ag1305
ag838
ag839
ag840
ag841
ag842
ag843
ag844
ag845
ag846
ag847
ag848
ag865
ag866
ag867
ag868
ag869
ag870
ag871
ag872
ag873
ag874
ag875
ag876
ag877
ag878
ag879
ag880
ag881
ag882
ag883
aa(lp1431
g1429
ag1303
ag1304
ag1305
ag838
ag839
ag840
ag841
ag842
ag843
ag844
ag845
ag846
ag847
ag848
ag865
ag866
ag867
ag868
ag869
ag870
ag871
ag872
ag873
ag874
ag875
ag876
ag877
ag878
ag879
ag880
ag881
ag882
ag490
ag491
ag492
ag96
ag97
ag530
ag531
ag532
ag533
ag534
ag535
ag536
ag537
ag538
ag539
ag540
ag541
ag542
ag543
ag116
ag117
aa(lp1432
g1429
ag1303
ag1304
ag1305
aa(lp1433
g1429
ag1303
ag1304
ag1305
ag838
ag839
aa(lp1434
g1429
ag1303
ag1304
ag1305
ag838
ag839
ag840
aa(lp1435
g1429
ag1303
ag1304
ag1305
ag838
ag839
ag840
ag841
ag842
ag843
ag844
ag845
ag846
ag847
ag848
ag888
ag889
ag890
ag891
ag892
ag893
ag894
ag895
ag896
ag897
ag898
ag899
ag900
ag901
ag241
ag902
ag903
ag904
ag905
ag906
ag907
ag908
ag909
ag910
ag911
ag912
ag913
ag914
ag915
ag916
ag917
aa(lp1436
g1429
ag1303
ag1304
ag1305
ag838
ag839
ag840
ag841
ag842
ag843
ag844
ag845
ag846
ag847
ag848
ag888
ag889
ag919
ag920
ag921
ag922
ag923
ag215
ag216
ag217
ag218
ag219
aa(lp1437
g1429
ag925
ag926
ag927
ag928
ag929
ag930
ag931
ag932
ag933
ag934
ag935
ag936
ag937
ag938
ag939
ag940
ag941
ag942
ag943
ag944
ag945
ag946
ag947
ag948
ag949
ag950
ag951
ag952
ag953
ag954
ag955
ag956
ag957
ag258
ag259
ag260
ag261
ag262
ag263
ag264
ag265
ag266
ag267
ag268
ag269
ag270
ag271
ag272
ag273
ag274
ag275
aa(lp1438
g1429
ag1303
ag1304
ag1305
ag838
ag839
ag840
ag841
ag842
ag843
ag844
ag845
ag846
ag847
ag848
ag849
ag850
ag851
ag852
ag960
aa(lp1439
g1429
ag1303
ag1304
ag1305
ag838
ag839
ag840
ag841
ag842
ag843
ag844
ag845
ag846
ag847
ag848
ag849
ag850
ag851
ag852
ag853
ag854
ag855
ag856
ag857
ag858
ag859
ag860
ag861
ag862
ag863
ag505
ag506
ag507
ag508
ag509
ag510
ag590
ag591
ag592
ag593
ag594
ag595
ag596
ag597
ag598
ag599
ag600
ag601
ag602
ag603
ag604
ag605
ag606
ag607
ag608
ag609
ag610
ag611
ag612
ag613
ag614
ag615
ag616
ag617
ag618
ag619
ag620
ag621
ag622
ag623
ag624
ag625
ag626
ag627
ag628
ag629
ag630
ag631
ag632
ag633
ag332
ag333
ag334
ag335
ag336
ag337
ag338
ag339
ag340
ag341
ag342
ag343
ag344
ag345
ag346
ag347
ag348
ag349
ag350
ag351
ag352
ag353
ag354
ag355
ag356
ag357
ag358
ag359
ag360
ag361
ag362
ag363
ag364
ag365
ag366
ag367
ag368
ag369
ag370
ag371
ag372
ag373
ag374
ag375
ag376
ag377
ag378
ag379
ag380
ag381
ag382
ag383
ag384
ag385
ag386
ag387
ag388
ag389
ag390
ag391
ag392
ag393
aa(lp1440
g1429
ag1303
ag1304
ag1305
ag838
ag839
ag840
ag841
ag842
ag843
ag844
ag845
ag846
ag847
ag848
ag888
ag889
ag890
ag891
ag892
ag893
ag894
ag895
ag896
ag897
ag898
ag899
ag963
ag964
ag965
ag966
ag967
ag968
ag653
ag654
ag655
ag656
ag657
ag658
ag659
ag660
ag661
ag662
ag663
ag664
ag665
ag666
ag667
ag668
ag669
ag670
ag435
ag436
ag437
ag438
ag439
ag440
ag441
ag442
ag443
ag444
ag445
aa(lp1441
g1429
ag925
ag926
ag927
ag928
ag929
ag930
ag931
ag932
ag933
ag934
ag935
ag936
ag937
ag938
ag939
ag940
ag941
ag942
ag943
ag944
ag945
ag946
ag947
ag948
ag949
ag950
ag951
ag952
ag953
ag954
ag970
ag971
ag448
ag449
ag450
ag451
ag452
ag453
ag454
ag455
ag456
ag457
ag458
ag459
ag460
ag461
ag462
ag463
ag464
ag465
ag466
ag467
ag468
ag469
ag470
ag471
ag472
ag473
ag474
ag475
ag476
aa(lp1442
g1429
ag1303
ag1304
ag1305
ag838
aa(lp1443
g1429
ag1303
aS'-97.7524330237 30.2454980633'
p1444
aS'-97.753527328 30.2458006398'
p1445
aS'-97.7563389586 30.2465640652'
p1446
aS'-97.7577907216 30.2469755571'
p1447
aS'-97.7591760522 30.2474434542'
p1448
aS'-97.7606089749 30.247879288'
p1449
aS'-97.7620543566 30.2483236065'
p1450
aS'-97.7632048374 30.2486602305'
p1451
aS'-97.7643509415 30.2489830038'
p1452
aS'-97.7656080396 30.2494207555'
p1453
aS'-97.765129693 30.2512071294'
p1454
ag1424
ag1425
ag1426
ag1427
aa(lp1455
S'-97.7381996855 30.2636680538'
p1456
aS'-97.7378412482 30.2646261638'
p1457
aS'-97.7374841331 30.2655347938'
p1458
aS'-97.7371871581 30.2664748952'
p1459
aS'-97.7368168465 30.2674025087'
p1460
ag1170
ag1171
ag1172
ag1173
ag1174
ag1175
ag1176
ag860
ag861
ag862
ag863
ag505
ag506
ag507
ag508
ag509
ag510
ag511
ag512
ag513
ag514
ag515
ag516
ag517
ag518
ag519
ag520
ag521
ag522
ag523
ag524
ag525
ag526
ag527
ag528
aa(lp1461
g1456
ag1457
ag1458
ag1459
ag208
ag209
ag210
ag211
ag1253
aS'-97.7407805051 30.2695317748'
p1462
aS'-97.7421139571 30.2699052911'
p1463
ag872
ag873
ag874
ag875
ag876
ag877
ag878
ag879
ag880
ag881
ag882
ag883
aa(lp1464
g1456
ag1457
ag1458
ag1459
ag1460
ag1170
ag1171
ag1172
ag1173
ag1174
ag1175
ag1176
ag860
ag861
ag862
aS'-97.7280309653 30.2817035554'
p1465
aS'-97.7272353267 30.2823351132'
p1466
aS'-97.7269206165 30.28298514'
p1467
aS'-97.7274795718 30.2830907345'
p1468
aS'-97.727964714 30.2832271145'
p1469
aS'-97.7267426104 30.2871665682'
p1470
ag111
ag112
ag113
ag114
ag115
ag116
ag117
aa(lp1471
g1456
aS'-97.7387921561 30.2617823162'
p1472
ag132
ag133
ag134
ag135
ag136
ag137
ag138
ag139
ag140
ag141
ag142
ag143
ag144
ag145
ag146
aa(lp1473
g1456
ag1472
ag132
ag133
ag134
ag135
ag136
ag137
ag138
ag139
ag140
ag141
ag142
ag143
ag144
aa(lp1474
g1456
ag1472
ag132
ag133
ag134
ag135
ag136
ag137
ag138
ag139
ag140
ag141
ag142
ag143
aa(lp1475
g1456
ag1457
ag1458
ag1459
ag208
ag209
ag210
ag211
ag212
ag213
ag214
ag215
ag216
ag217
ag218
ag219
ag221
ag222
ag223
ag224
ag225
ag226
ag227
ag228
ag229
ag230
ag231
ag232
ag233
ag234
ag235
ag236
ag237
ag238
ag239
ag240
ag241
ag902
ag903
ag904
ag905
ag906
ag907
ag908
ag909
ag910
ag911
ag912
ag913
ag914
ag915
ag916
ag917
aa(lp1476
g1456
ag1457
ag1458
ag1459
ag208
ag209
ag210
ag211
ag212
ag213
ag214
ag215
ag216
ag217
ag218
ag219
aa(lp1477
g1456
ag1457
ag1458
ag1459
ag208
ag209
ag210
ag211
ag212
ag213
ag214
ag215
ag216
ag217
ag218
ag219
ag221
ag222
ag223
ag224
ag225
ag226
ag227
ag228
ag229
ag230
ag231
ag232
ag233
ag234
ag235
ag236
ag237
ag238
ag239
ag240
ag241
ag242
ag243
ag244
ag245
ag246
ag247
ag248
ag249
ag250
ag251
ag252
ag253
ag254
ag255
ag256
ag257
ag258
ag259
ag260
ag261
ag262
ag263
ag264
ag265
ag266
ag267
ag268
ag269
ag270
ag271
ag272
ag273
ag274
ag275
aa(lp1478
g1456
ag1472
ag132
ag133
ag134
ag135
ag136
ag137
ag138
ag139
ag140
ag141
ag142
ag143
ag144
ag145
ag146
ag277
ag278
ag279
aa(lp1479
g1456
ag1457
ag1458
ag1459
ag1460
ag1170
ag1171
ag1172
ag1173
ag1174
ag1175
ag1176
ag860
ag861
ag862
ag863
ag505
ag506
ag507
ag508
ag509
ag510
ag590
ag591
ag592
ag593
ag594
ag595
ag596
ag597
ag598
ag599
ag600
ag601
ag602
ag603
ag604
ag605
ag606
ag607
ag608
ag609
ag610
ag611
ag612
ag613
ag614
ag615
ag616
ag617
ag618
ag619
ag620
ag621
ag622
ag623
ag624
ag625
ag626
ag627
ag628
ag629
ag630
ag631
ag632
ag633
ag332
ag333
ag334
ag335
ag336
ag337
ag338
ag339
ag340
ag341
ag342
ag343
ag344
ag345
ag346
ag347
ag348
ag349
ag350
ag351
ag352
ag353
ag354
ag355
ag356
ag357
ag358
ag359
ag360
ag361
ag362
ag363
ag364
ag365
ag366
ag367
ag368
ag369
ag370
ag371
ag372
ag373
ag374
ag375
ag376
ag377
ag378
ag379
ag380
ag381
ag382
ag383
ag384
ag385
ag386
ag387
ag388
ag389
ag390
ag391
ag392
ag393
aa(lp1480
g1456
ag1457
ag1458
ag1459
ag1460
ag1170
ag1171
ag1172
ag1173
ag1174
ag1175
ag1176
ag860
ag861
ag862
ag863
ag505
ag506
ag507
ag508
ag509
ag510
ag511
ag512
ag513
ag514
aS'-97.7036139696 30.342664744'
p1481
aS'-97.7051302653 30.3439409526'
p1482
aS'-97.7095703411 30.3463142483'
p1483
aS'-97.7125272633 30.3478941844'
p1484
aS'-97.7145658234 30.3535522804'
p1485
aS'-97.7183630581 30.3674150015'
p1486
aS'-97.7245933152 30.3724182707'
p1487
aS'-97.7286611312 30.3743588085'
p1488
aS'-97.7358513156 30.3784857021'
p1489
ag433
ag434
ag435
ag436
ag437
ag438
ag439
ag440
ag441
ag442
ag443
ag444
ag445
aa(lp1490
g1456
ag1457
ag1458
ag1459
ag208
ag209
ag210
ag211
ag212
ag213
ag214
ag215
ag216
ag217
ag218
ag219
ag221
ag222
ag223
ag224
ag225
ag226
ag227
ag228
ag229
ag230
ag231
ag232
ag233
ag234
ag235
ag236
ag237
ag238
ag239
ag240
ag241
ag242
ag243
ag244
ag245
ag246
ag247
ag248
ag249
ag250
ag251
ag252
ag253
ag254
ag255
ag447
ag448
ag449
ag450
ag451
ag452
ag453
ag454
ag455
ag456
ag457
ag458
ag459
ag460
ag461
ag462
ag463
ag464
ag465
ag466
ag467
ag468
ag469
ag470
ag471
ag472
ag473
ag474
ag475
ag476
aa(lp1491
g1456
ag1472
ag132
ag133
ag134
ag135
ag136
ag137
ag138
ag139
ag140
ag141
ag142
ag143
ag144
ag145
aa(lp1492
g1456
ag1472
ag132
ag133
ag134
ag135
ag136
ag137
ag479
ag480
ag481
ag482
ag483
ag484
ag485
ag486
aa(lp1493
S'-97.3702065394 30.4195730115'
p1494
aS'-97.3697897722 30.4193731314'
p1495
aS'-97.3753602764 30.4105934617'
p1496
aS'-97.3821608699 30.3995716334'
p1497
aS'-97.3836913025 30.3970762989'
p1498
aS'-97.3929378177 30.3824739577'
p1499
aS'-97.3982181166 30.3739663506'
p1500
aS'-97.3992387076 30.3723905204'
p1501
aS'-97.4002435209 30.3708390222'
p1502
aS'-97.4016302522 30.3686709072'
p1503
aS'-97.4022889252 30.3676316694'
p1504
aS'-97.4038876666 30.3651181196'
p1505
aS'-97.4041709894 30.3646301634'
p1506
aS'-97.4048900922 30.3633916538'
p1507
aS'-97.4061710453 30.3612864596'
p1508
aS'-97.4066567722 30.360594749'
p1509
aS'-97.4120134385 30.3521380541'
p1510
aS'-97.4160101929 30.3521526576'
p1511
aS'-97.4227481304 30.3521973655'
p1512
aS'-97.4251994154 30.3523439667'
p1513
aS'-97.4277621188 30.3523022401'
p1514
aS'-97.4284485796 30.3521331754'
p1515
aS'-97.4338254888 30.3519022424'
p1516
aS'-97.4425300998 30.3515309698'
p1517
aS'-97.4501288408 30.3514638989'
p1518
aS'-97.4570347027 30.3514750733'
p1519
aS'-97.4623429686 30.3514881024'
p1520
aS'-97.4665657602 30.3516016067'
p1521
aS'-97.4674135861 30.3514714518'
p1522
aS'-97.4753423964 30.3513170488'
p1523
aS'-97.4775591704 30.3512529758'
p1524
aS'-97.4840597089 30.351102692'
p1525
aS'-97.4856911937 30.3511960593'
p1526
aS'-97.4916707727 30.3508947832'
p1527
aS'-97.5006792995 30.3505412674'
p1528
aS'-97.5095253473 30.3501895119'
p1529
aS'-97.5145952777 30.3501299997'
p1530
aS'-97.5186946244 30.3498163246'
p1531
aS'-97.5235363258 30.3496527629'
p1532
aS'-97.5263172209 30.3495538073'
p1533
aS'-97.5299900045 30.3494738789'
p1534
aS'-97.5386048868 30.3492741565'
p1535
aS'-97.5456823415 30.3492460406'
p1536
aS'-97.5465967906 30.3491265222'
p1537
aS'-97.5519267515 30.3490238512'
p1538
aS'-97.5559731299 30.3489445451'
p1539
aS'-97.5569698074 30.3488157591'
p1540
aS'-97.5580218908 30.3487627853'
p1541
aS'-97.5593144573 30.3486754538'
p1542
aS'-97.5608166996 30.3484273394'
p1543
aS'-97.5619745384 30.348199957'
p1544
aS'-97.5675318209 30.3470455961'
p1545
aS'-97.572817294 30.3458178974'
p1546
aS'-97.5746601408 30.3455240363'
p1547
aS'-97.5799858784 30.3443591275'
p1548
aS'-97.5802643661 30.3441758487'
p1549
aS'-97.5819795486 30.3461468329'
p1550
aS'-97.5862479316 30.3495405857'
p1551
aS'-97.5885673659 30.3508678879'
p1552
aS'-97.5915981864 30.3521011111'
p1553
aS'-97.5928564173 30.3526877764'
p1554
aS'-97.6000156488 30.3565970064'
p1555
aS'-97.6035311298 30.3632646833'
p1556
aS'-97.6049661119 30.3656790489'
p1557
aS'-97.6071527971 30.3670369549'
p1558
aS'-97.6131748352 30.3685206653'
p1559
aS'-97.6144460199 30.3687780492'
p1560
aS'-97.6204014866 30.3701347503'
p1561
aS'-97.6216534301 30.3708183557'
p1562
aS'-97.6250841365 30.3724963173'
p1563
aS'-97.6285167274 30.3744414834'
p1564
aS'-97.6317137671 30.3760015131'
p1565
aS'-97.6355408056 30.378025479'
p1566
aS'-97.6448659268 30.3846750802'
p1567
aS'-97.6468896905 30.3862620258'
p1568
aS'-97.6485399454 30.3870039251'
p1569
aS'-97.6495011963 30.3849369422'
p1570
aS'-97.6514425787 30.3821590591'
p1571
aS'-97.6529184983 30.3805594354'
p1572
aS'-97.6542186578 30.3793035027'
p1573
aS'-97.6568732346 30.3782744038'
p1574
aS'-97.6586616504 30.3772900947'
p1575
aS'-97.6590548409 30.3767730751'
p1576
aS'-97.6612716512 30.3747623273'
p1577
aS'-97.6636079483 30.3735515364'
p1578
aS'-97.6649755161 30.3729725115'
p1579
aS'-97.6657357595 30.372437969'
p1580
aS'-97.6666991078 30.3728643719'
p1581
aS'-97.6676146769 30.373279928'
p1582
aS'-97.6690128382 30.3737681838'
p1583
aS'-97.6698631893 30.3741143245'
p1584
aS'-97.6725348728 30.3754255216'
p1585
aS'-97.6739904444 30.3761598079'
p1586
aS'-97.6755827999 30.3769489224'
p1587
ag525
ag526
ag527
ag528
aa(lp1588
g1494
ag1495
ag1496
ag1497
ag1498
ag1499
ag1500
ag1501
ag1502
ag1503
ag1504
ag1505
ag1506
ag1507
ag1508
ag1509
ag1510
ag1511
ag1512
ag1513
ag1514
ag1515
ag1516
ag1517
ag1518
ag1519
ag1520
ag1521
ag1522
ag1523
ag1524
ag1525
ag1526
ag1527
ag1528
ag1529
ag1530
ag1531
ag1532
ag1533
ag1534
ag1535
ag1536
ag1537
ag1538
ag1539
ag1540
ag1541
ag1542
ag1543
ag1544
ag1545
ag1546
ag1547
ag1548
ag1549
aS'-97.5854348466 30.3426338999'
p1589
aS'-97.5890448795 30.3412759741'
p1590
aS'-97.5936888471 30.3395167793'
p1591
aS'-97.5993615692 30.3373705342'
p1592
aS'-97.6017313127 30.3364891384'
p1593
aS'-97.6048755812 30.3383199115'
p1594
aS'-97.6095677776 30.340653132'
p1595
aS'-97.6122076632 30.342121472'
p1596
aS'-97.6132857949 30.342393398'
p1597
aS'-97.615847917 30.3431733667'
p1598
aS'-97.6230396687 30.3317796285'
p1599
aS'-97.6232751523 30.3312304269'
p1600
aS'-97.6264295811 30.327571644'
p1601
aS'-97.6347791844 30.3274038572'
p1602
aS'-97.635285591 30.3272352549'
p1603
aS'-97.6370157269 30.3266592095'
p1604
aS'-97.6374799161 30.326504653'
p1605
aS'-97.6394644237 30.3258438885'
p1606
aS'-97.6444421915 30.3241830351'
p1607
aS'-97.6523132833 30.3223479208'
p1608
aS'-97.6524381802 30.3223177372'
p1609
aS'-97.6534040798 30.3220843007'
p1610
aS'-97.6541362268 30.3231478918'
p1611
aS'-97.6575453224 30.3245722871'
p1612
aS'-97.6571724308 30.3251489638'
p1613
aS'-97.6552582014 30.3281691895'
p1614
aS'-97.6547129852 30.3290580361'
p1615
aS'-97.6594194095 30.3287296316'
p1616
aS'-97.6659949869 30.3281420367'
p1617
aS'-97.6750694649 30.3251176197'
p1618
aS'-97.6870419734 30.3216337742'
p1619
aS'-97.6959271393 30.3215204614'
p1620
aS'-97.6996554421 30.3221285897'
p1621
aS'-97.7074556617 30.319311646'
p1622
aS'-97.7078154732 30.3159926631'
p1623
ag80
ag81
ag82
ag83
ag84
ag85
ag86
ag87
ag88
ag89
ag90
ag91
ag92
ag93
ag94
ag95
ag96
ag97
ag98
ag99
ag100
aa(lp1624
g1494
ag1495
ag1496
ag1497
ag1498
ag1499
ag1500
ag1501
ag1502
ag1503
ag1504
ag1505
ag1506
ag1507
ag1508
ag1509
ag1510
ag1511
ag1512
ag1513
ag1514
ag1515
ag1516
ag1517
ag1518
ag1519
ag1520
ag1521
ag1522
ag1523
ag1524
ag1525
ag1526
ag1527
ag1528
ag1529
ag1530
ag1531
ag1532
ag1533
ag1534
ag1535
ag1536
ag1537
ag1538
ag1539
ag1540
ag1541
ag1542
ag1543
ag1544
ag1545
ag1546
ag1547
ag1548
ag1549
ag1589
ag1590
ag1591
ag1592
ag1593
ag1594
ag1595
ag1596
ag1597
ag1598
ag1599
ag1600
ag1601
ag1602
ag1603
ag1604
ag1605
ag1606
ag1607
ag1608
ag1609
ag1610
ag1611
ag1612
ag1613
ag1614
ag1615
ag1616
ag1617
ag1618
ag1619
ag1620
ag1621
ag1622
ag1623
ag80
ag81
ag82
ag102
ag103
ag104
ag105
ag106
ag107
ag108
ag109
ag110
ag111
ag112
ag113
ag114
ag115
ag116
ag117
aa(lp1625
g1494
ag1495
ag1496
ag1497
ag1498
ag1499
ag1500
ag1501
ag1502
ag1503
ag1504
ag1505
ag1506
ag1507
ag1508
ag1509
ag1510
ag1511
ag1512
ag1513
ag1514
ag1515
ag1516
ag1517
ag1518
ag1519
ag1520
ag1521
ag1522
ag1523
ag1524
ag1525
ag1526
ag1527
ag1528
ag1529
ag1530
ag1531
ag1532
ag1533
ag1534
ag1535
ag1536
ag1537
ag1538
ag1539
ag1540
ag1541
ag1542
ag1543
ag1544
ag1545
ag1546
ag1547
ag1548
ag1549
ag1589
ag1590
ag1591
ag1592
ag1593
ag1594
ag1595
ag1596
ag1597
ag1598
ag1599
ag1600
ag1601
ag1602
ag1603
ag1604
ag1605
ag1606
ag1607
ag1608
ag1609
ag1610
ag1611
ag1612
ag1613
ag1614
ag1615
ag1616
ag1617
ag1618
ag1619
ag1620
ag1621
ag1622
ag1623
ag80
ag81
ag82
ag102
ag103
ag119
ag120
ag121
ag122
ag123
ag124
ag125
ag126
ag127
ag128
ag129
ag130
ag131
ag132
ag133
ag134
ag135
ag136
ag137
ag138
ag139
ag140
ag141
ag142
ag143
ag144
ag145
ag146
aa(lp1626
g1494
ag1495
ag1496
ag1497
ag1498
ag1499
ag1500
ag1501
ag1502
ag1503
ag1504
ag1505
ag1506
ag1507
ag1508
ag1509
ag1510
ag1511
ag1512
ag1513
ag1514
ag1515
ag1516
ag1517
ag1518
ag1519
ag1520
ag1521
ag1522
ag1523
ag1524
ag1525
ag1526
ag1527
ag1528
ag1529
ag1530
ag1531
ag1532
ag1533
ag1534
ag1535
ag1536
ag1537
ag1538
ag1539
ag1540
ag1541
ag1542
ag1543
ag1544
ag1545
ag1546
ag1547
ag1548
ag1549
ag1589
ag1590
ag1591
ag1592
ag1593
ag1594
ag1595
ag1596
ag1597
ag1598
ag1599
ag1600
ag1601
ag1602
ag1603
ag1604
ag1605
ag1606
ag1607
ag1608
ag1609
ag1610
ag1611
ag1612
ag1613
ag1614
ag1615
ag1616
ag1617
ag1618
ag1619
ag1620
ag1621
ag1622
ag1623
ag80
ag81
ag82
ag102
ag103
ag119
ag120
ag121
ag122
ag123
ag124
ag125
ag126
ag127
ag128
ag129
ag130
ag131
ag132
ag133
ag134
ag135
ag136
ag137
ag138
ag139
ag140
ag141
ag142
ag143
ag144
aa(lp1627
g1494
ag1495
ag1496
ag1497
ag1498
ag1499
ag1500
ag1501
ag1502
ag1503
ag1504
ag1505
ag1506
ag1507
ag1508
ag1509
ag1510
ag1511
ag1512
ag1513
ag1514
ag1515
ag1516
ag1517
ag1518
ag1519
ag1520
ag1521
ag1522
ag1523
ag1524
ag1525
ag1526
ag1527
ag1528
ag1529
ag1530
ag1531
ag1532
ag1533
ag1534
ag1535
ag1536
ag1537
ag1538
ag1539
ag1540
ag1541
ag1542
ag1543
ag1544
ag1545
ag1546
ag1547
ag1548
ag1549
ag1589
ag1590
ag1591
ag1592
ag1593
ag1594
ag1595
ag1596
ag1597
ag1598
ag1599
ag1600
ag1601
ag1602
ag1603
ag1604
ag1605
ag1606
ag1607
ag1608
ag1609
ag1610
ag1611
ag1612
ag1613
ag1614
ag1615
ag1616
ag1617
ag1618
ag1619
ag1620
ag1621
ag1622
ag1623
ag80
ag81
ag82
ag102
ag103
ag119
ag120
ag121
ag122
ag123
ag124
ag125
ag126
ag127
ag128
ag129
ag130
ag131
ag132
ag133
ag134
ag135
ag136
ag137
ag138
ag139
ag140
ag141
ag142
ag143
aa(lp1628
g1494
ag1495
ag1496
ag1497
ag1498
ag1499
ag1500
ag1501
ag1502
ag1503
ag1504
ag1505
ag1506
ag1507
ag1508
ag1509
ag1510
ag1511
ag1512
ag1513
ag1514
ag1515
ag1516
ag1517
ag1518
ag1519
ag1520
ag1521
ag1522
ag1523
ag1524
ag1525
ag1526
ag1527
ag1528
ag1529
ag1530
ag1531
ag1532
ag1533
ag1534
ag1535
ag1536
ag1537
ag1538
ag1539
ag1540
ag1541
ag1542
ag1543
ag1544
ag1545
ag1546
ag1547
ag1548
ag1549
ag1589
ag1590
ag1591
ag1592
ag1593
ag1594
ag1595
ag1596
ag1597
ag1598
ag1599
ag1600
ag1601
ag1602
ag1603
ag1604
ag1605
ag1606
ag1607
ag1608
ag1609
ag1610
ag1611
ag1612
ag1613
ag1614
ag1615
ag1616
ag1617
ag1618
ag1619
ag1620
ag1621
ag1622
ag1623
ag80
ag81
ag82
ag83
ag84
ag85
ag150
ag151
ag152
ag153
ag154
ag155
ag156
ag157
ag158
ag159
ag160
ag161
ag162
ag163
ag164
ag165
ag166
ag167
ag168
ag169
ag170
ag171
ag172
ag173
ag174
ag175
ag176
ag177
ag178
ag179
ag180
ag181
ag182
ag183
ag184
ag185
ag186
ag187
ag188
ag189
ag190
ag191
ag192
ag193
ag194
ag195
ag196
ag197
ag198
ag199
aa(lp1629
g1494
ag1495
ag1496
ag1497
ag1498
ag1499
ag1500
ag1501
ag1502
ag1503
ag1504
ag1505
ag1506
ag1507
ag1508
ag1509
ag1510
ag1511
ag1512
ag1513
ag1514
ag1515
ag1516
ag1517
ag1518
ag1519
ag1520
ag1521
ag1522
ag1523
ag1524
ag1525
ag1526
ag1527
ag1528
ag1529
ag1530
ag1531
ag1532
ag1533
ag1534
ag1535
ag1536
ag1537
ag1538
ag1539
ag1540
ag1541
ag1542
ag1543
ag1544
ag1545
ag1546
ag1547
ag1548
ag1549
ag1589
ag1590
ag1591
ag1592
ag1593
ag1594
ag1595
ag1596
ag1597
ag1598
ag1599
ag1600
ag1601
ag1602
ag1603
ag1604
ag1605
ag1606
ag1607
ag1608
ag1609
ag1610
ag1611
ag1612
ag1613
ag1614
ag1615
ag1616
ag1617
ag1618
ag1619
ag1620
ag1621
ag1622
ag1623
ag80
ag81
ag82
ag102
ag103
ag119
ag120
ag121
ag122
ag123
ag124
ag125
ag201
ag202
ag203
ag204
ag205
ag206
ag207
ag208
ag209
ag210
ag211
ag212
ag213
ag214
ag215
ag216
ag217
ag218
ag219
aa(lp1630
g1494
ag1495
ag1496
ag1497
ag1498
ag1499
ag1500
ag1501
ag1502
ag1503
ag1504
ag1505
ag1506
ag1507
ag1508
ag1509
ag1510
ag1511
ag1512
ag1513
ag1514
ag1515
ag1516
ag1517
ag1518
ag1519
ag1520
ag1521
ag1522
ag1523
ag1524
ag1525
ag1526
ag1527
ag1528
ag1529
ag1530
ag1531
ag1532
ag1533
ag1534
ag1535
ag1536
ag1537
ag1538
ag1539
ag1540
ag1541
ag1542
ag1543
ag1544
ag1545
ag1546
ag1547
ag1548
ag1549
ag1589
aS'-97.5903166921 30.3412601979'
p1631
aS'-97.5906924329 30.3411139075'
p1632
aS'-97.5919099044 30.3406747883'
p1633
aS'-97.5915018163 30.339890795'
p1634
aS'-97.5885859246 30.3350909086'
p1635
aS'-97.5860012849 30.3304488009'
p1636
aS'-97.5771112851 30.3192368359'
p1637
aS'-97.5712171505 30.3110988456'
p1638
aS'-97.5703089274 30.3087161311'
p1639
aS'-97.5701432925 30.308172903'
p1640
aS'-97.5795818599 30.2833161797'
p1641
aS'-97.601927267 30.2579852617'
p1642
aS'-97.6045836335 30.253730747'
p1643
aS'-97.6130614569 30.2433802563'
p1644
aS'-97.6161101328 30.2385427483'
p1645
aS'-97.6176907444 30.235558896'
p1646
aS'-97.622824041 30.2214618986'
p1647
aS'-97.6228066112 30.2099318478'
p1648
aS'-97.6228081156 30.2062680174'
p1649
aS'-97.6232491091 30.202614893'
p1650
aS'-97.6233558275 30.1981773226'
p1651
aS'-97.6264165363 30.1969900607'
p1652
aS'-97.6360234072 30.2015598193'
p1653
aS'-97.6375725663 30.2023468803'
p1654
aS'-97.6380400645 30.2025904449'
p1655
aS'-97.6393875559 30.2032913582'
p1656
aS'-97.6414886435 30.2042383298'
p1657
aS'-97.6420638397 30.2046361074'
p1658
aS'-97.645907165 30.2064914862'
p1659
aS'-97.6511481264 30.2091819468'
p1660
aS'-97.6525324655 30.2098573859'
p1661
aS'-97.6535292403 30.210546894'
p1662
aS'-97.655287404 30.21144999'
p1663
aS'-97.6650300908 30.216519581'
p1664
aS'-97.6684797504 30.2183929895'
p1665
aS'-97.6689165697 30.218632798'
p1666
aS'-97.6717605732 30.2200724671'
p1667
aS'-97.674017915 30.2212230316'
p1668
aS'-97.6764980894 30.2223153007'
p1669
aS'-97.6776767788 30.2228912513'
p1670
aS'-97.6820406165 30.2229142803'
p1671
aS'-97.6838973417 30.2219529461'
p1672
aS'-97.6871293028 30.2201907738'
p1673
aS'-97.6882601982 30.2195568491'
p1674
aS'-97.690488872 30.2182848097'
p1675
aS'-97.6988723343 30.2156687343'
p1676
aS'-97.7113183824 30.2123529477'
p1677
aS'-97.7146950593 30.2127640742'
p1678
aS'-97.7296568638 30.2146547191'
p1679
aS'-97.7351313886 30.2154266473'
p1680
aS'-97.7386431965 30.2159344088'
p1681
aS'-97.7427714122 30.2162539623'
p1682
aS'-97.7486078612 30.2164544845'
p1683
aS'-97.7536673002 30.2173942484'
p1684
aS'-97.7604663287 30.2211295709'
p1685
aS'-97.7624186174 30.2221311684'
p1686
aS'-97.7638090658 30.2230179152'
p1687
aS'-97.7694114828 30.2267321466'
p1688
ag946
ag947
ag948
ag949
ag950
ag951
ag952
ag953
ag954
ag955
ag956
ag957
ag258
ag259
ag260
ag261
ag262
ag263
ag264
ag265
ag266
ag267
ag268
ag269
ag270
ag271
ag272
ag273
ag274
ag275
aa(lp1689
g1494
ag1495
ag1496
ag1497
ag1498
ag1499
ag1500
ag1501
ag1502
ag1503
ag1504
ag1505
ag1506
ag1507
ag1508
ag1509
ag1510
ag1511
ag1512
ag1513
ag1514
ag1515
ag1516
ag1517
ag1518
ag1519
ag1520
ag1521
ag1522
ag1523
ag1524
ag1525
ag1526
ag1527
ag1528
ag1529
ag1530
ag1531
ag1532
ag1533
ag1534
ag1535
ag1536
ag1537
ag1538
ag1539
ag1540
ag1541
ag1542
ag1543
ag1544
ag1545
ag1546
ag1547
ag1548
ag1549
ag1589
ag1590
ag1591
ag1592
ag1593
ag1594
ag1595
ag1596
ag1597
ag1598
ag1599
ag1600
ag1601
ag1602
ag1603
ag1604
ag1605
ag1606
ag1607
ag1608
ag1609
ag1610
ag1611
ag1612
ag1613
ag1614
ag1615
ag1616
ag1617
ag1618
ag1619
ag1620
ag1621
ag1622
ag1623
ag80
ag81
ag82
ag102
ag103
ag119
ag120
ag121
ag122
ag123
ag124
ag125
ag126
ag127
ag128
ag129
ag130
ag131
ag132
ag133
ag134
ag135
ag136
ag137
ag138
ag139
ag140
ag141
ag142
ag143
ag144
ag145
ag146
ag277
ag278
ag279
aa(lp1690
g1494
ag1495
ag1496
ag1497
ag1498
ag1499
ag1500
ag1501
ag1502
ag1503
ag1504
ag1505
ag1506
ag1507
ag1508
ag1509
ag1510
ag1511
ag1512
ag1513
ag1514
ag1515
ag1516
ag1517
ag1518
ag1519
ag1520
ag1521
ag1522
ag1523
ag1524
ag1525
ag1526
ag1527
ag1528
ag1529
ag1530
ag1531
ag1532
ag1533
ag1534
ag1535
ag1536
ag1537
ag1538
ag1539
ag1540
ag1541
ag1542
ag1543
ag1544
ag1545
ag1546
ag1547
ag1548
ag1549
ag1589
ag1590
ag1591
ag1592
ag1593
ag1594
ag1595
ag1596
ag1597
ag1598
ag1599
ag1600
ag1601
ag1602
ag1603
ag1604
ag1605
ag1606
ag1607
ag1608
ag1609
ag1610
ag1611
ag1612
ag1613
ag1614
ag1615
ag1616
ag1617
ag1618
ag1619
ag1620
ag1621
ag1622
ag1623
ag80
ag81
ag82
ag102
ag103
ag119
ag120
ag121
ag122
ag123
ag124
ag125
ag201
ag202
ag203
ag204
ag205
ag206
ag207
ag281
ag282
ag283
aa(lp1691
g1494
ag1495
ag1496
ag1497
ag1498
ag1499
ag1500
ag1501
ag1502
ag1503
ag1504
ag1505
ag1506
ag1507
ag1508
ag1509
ag1510
ag1511
ag1512
ag1513
ag1514
ag1515
ag1516
ag1517
ag1518
ag1519
ag1520
ag1521
ag1522
ag1523
ag1524
ag1525
ag1526
ag1527
ag1528
ag1529
ag1530
ag1531
ag1532
ag1533
ag1534
ag1535
ag1536
ag1537
ag1538
ag1539
ag1540
ag1541
ag1542
ag1543
ag1544
ag1545
ag1546
ag1547
ag1548
ag1549
ag1550
ag1551
ag1552
ag1553
ag1554
ag1555
ag1556
ag1557
ag1558
ag1559
ag1560
ag1561
ag1562
ag1563
ag1564
ag1565
ag1566
ag1567
ag1568
ag1569
aS'-97.650823619 30.3883410622'
p1692
aS'-97.6534581007 30.3945079032'
p1693
aS'-97.6549192384 30.3995417311'
p1694
aS'-97.6573728036 30.4023131367'
p1695
aS'-97.663934232 30.4052608646'
p1696
aS'-97.6660926033 30.4054900808'
p1697
aS'-97.6687328806 30.4057722033'
p1698
aS'-97.6715219869 30.4068795906'
p1699
aS'-97.6739509285 30.4078642108'
p1700
aS'-97.6752346636 30.4080288523'
p1701
aS'-97.6782212235 30.4078513727'
p1702
aS'-97.6793004587 30.4080458193'
p1703
aS'-97.6803177376 30.4084439079'
p1704
aS'-97.6823475864 30.4092748663'
p1705
aS'-97.6851134973 30.4105749918'
p1706
aS'-97.6867067966 30.4113570981'
p1707
aS'-97.6905821817 30.4132325073'
p1708
aS'-97.6932669405 30.4145386751'
p1709
aS'-97.6959060654 30.4158091095'
p1710
aS'-97.6982210066 30.4169816568'
p1711
aS'-97.699357946 30.4175651415'
p1712
aS'-97.7008852015 30.418328934'
p1713
aS'-97.7022203428 30.4190118146'
p1714
aS'-97.7027433676 30.4194374867'
p1715
aS'-97.7035827979 30.4199772365'
p1716
aS'-97.7045937931 30.4205917297'
p1717
aS'-97.7047900958 30.4200930081'
p1718
aS'-97.7054751931 30.41808416'
p1719
aS'-97.7058083581 30.4170894307'
p1720
aS'-97.7070031205 30.4148139087'
p1721
aS'-97.7086929304 30.4126395409'
p1722
aS'-97.7119541346 30.4099485089'
p1723
aS'-97.7145612067 30.4093074629'
p1724
aS'-97.7160951102 30.4090591003'
p1725
aS'-97.7220512837 30.4116764369'
p1726
aS'-97.7234493096 30.4118880529'
p1727
aS'-97.7252606316 30.4117805407'
p1728
aS'-97.7310004127 30.4121266702'
p1729
aS'-97.7315849671 30.4125050379'
p1730
aS'-97.7321161737 30.412790843'
p1731
aS'-97.7328475683 30.4131243523'
p1732
aS'-97.7336530729 30.4135117247'
p1733
aS'-97.7343744257 30.4138450216'
p1734
aS'-97.735078763 30.4141681225'
p1735
aS'-97.7372450276 30.4152042969'
p1736
aS'-97.7380647903 30.4155666537'
p1737
aS'-97.7393804453 30.416193879'
p1738
aS'-97.7407256026 30.4168433862'
p1739
aS'-97.7421071238 30.4175066233'
p1740
aS'-97.7430434714 30.4179674819'
p1741
aS'-97.7451932579 30.4190255734'
p1742
aS'-97.7464430106 30.4191023689'
p1743
ag442
ag443
ag444
ag445
aa(lp1744
g1494
ag1495
ag1496
ag1497
ag1498
ag1499
ag1500
ag1501
ag1502
ag1503
ag1504
ag1505
ag1506
ag1507
ag1508
ag1509
ag1510
ag1511
ag1512
ag1513
ag1514
ag1515
ag1516
ag1517
ag1518
ag1519
ag1520
ag1521
ag1522
ag1523
ag1524
ag1525
ag1526
ag1527
ag1528
ag1529
ag1530
ag1531
ag1532
ag1533
ag1534
ag1535
ag1536
ag1537
ag1538
ag1539
ag1540
ag1541
ag1542
ag1543
ag1544
ag1545
ag1546
ag1547
ag1548
ag1549
ag1589
ag1631
ag1632
ag1633
ag1634
ag1635
ag1636
ag1637
ag1638
ag1639
ag1640
ag1641
ag1642
ag1643
ag1644
ag1645
ag1646
ag1647
ag1648
ag1649
ag1650
ag1651
ag1652
ag1653
ag1654
ag1655
ag1656
ag1657
ag1658
ag1659
ag1660
ag1661
ag1662
ag1663
ag1664
ag1665
ag1666
ag1667
ag1668
ag1669
ag1670
ag1671
ag1672
ag1673
ag1674
ag1675
ag1676
ag1677
ag1678
ag1679
ag1680
ag1681
ag1682
ag1683
ag1684
ag1685
ag1686
ag1687
ag1688
ag946
ag947
ag948
ag949
ag950
ag951
ag952
ag953
ag954
ag970
ag971
ag448
ag449
ag450
ag451
ag452
ag453
ag454
ag455
ag456
ag457
ag458
ag459
ag460
ag461
ag462
ag463
ag464
ag465
ag466
ag467
ag468
ag469
ag470
ag471
ag472
ag473
ag474
ag475
ag476
aa(lp1745
g1494
ag1495
ag1496
ag1497
ag1498
ag1499
ag1500
ag1501
ag1502
ag1503
ag1504
ag1505
ag1506
ag1507
ag1508
ag1509
ag1510
ag1511
ag1512
ag1513
ag1514
ag1515
ag1516
ag1517
ag1518
ag1519
ag1520
ag1521
ag1522
ag1523
ag1524
ag1525
ag1526
ag1527
ag1528
ag1529
ag1530
ag1531
ag1532
ag1533
ag1534
ag1535
ag1536
ag1537
ag1538
ag1539
ag1540
ag1541
ag1542
ag1543
ag1544
ag1545
ag1546
ag1547
ag1548
ag1549
ag1589
ag1590
ag1591
ag1592
ag1593
ag1594
ag1595
ag1596
ag1597
ag1598
ag1599
ag1600
ag1601
ag1602
ag1603
ag1604
ag1605
ag1606
ag1607
ag1608
ag1609
ag1610
ag1611
ag1612
ag1613
ag1614
ag1615
ag1616
ag1617
ag1618
ag1619
ag1620
ag1621
ag1622
ag1623
ag80
ag81
ag82
ag102
ag103
ag119
ag120
ag121
ag122
ag123
ag124
ag125
ag126
ag127
ag128
ag129
ag130
ag131
ag132
ag133
ag134
ag135
ag136
ag137
ag138
ag139
ag140
ag141
ag142
ag143
ag144
ag145
aa(lp1746
g1494
ag1495
ag1496
ag1497
ag1498
ag1499
ag1500
ag1501
ag1502
ag1503
ag1504
ag1505
ag1506
ag1507
ag1508
ag1509
ag1510
ag1511
ag1512
ag1513
ag1514
ag1515
ag1516
ag1517
ag1518
ag1519
ag1520
ag1521
ag1522
ag1523
ag1524
ag1525
ag1526
ag1527
ag1528
ag1529
ag1530
ag1531
ag1532
ag1533
ag1534
ag1535
ag1536
ag1537
ag1538
ag1539
ag1540
ag1541
ag1542
ag1543
ag1544
ag1545
ag1546
ag1547
ag1548
ag1549
ag1589
ag1590
ag1591
ag1592
ag1593
ag1594
ag1595
ag1596
ag1597
ag1598
ag1599
ag1600
ag1601
ag1602
ag1603
ag1604
ag1605
ag1606
ag1607
ag1608
ag1609
ag1610
ag1611
ag1612
ag1613
ag1614
ag1615
ag1616
ag1617
ag1618
ag1619
ag1620
ag1621
ag1622
ag1623
ag80
ag81
ag82
ag102
ag103
ag119
ag120
ag121
ag122
ag123
ag124
ag125
ag126
ag127
ag128
ag129
ag130
ag131
ag132
ag133
ag134
ag135
ag136
ag137
ag479
ag480
ag481
ag482
ag483
ag484
ag485
ag486
aa(lp1747
S'-97.746609473 30.4153933733'
p1748
aS'-97.7456510393 30.4118309008'
p1749
aS'-97.7453377609 30.4077110366'
p1750
aS'-97.7460154917 30.4032389803'
p1751
aS'-97.7460915601 30.4022737356'
p1752
aS'-97.7462841903 30.4005355433'
p1753
aS'-97.7454982525 30.4003576156'
p1754
aS'-97.7425211649 30.4002647239'
p1755
aS'-97.7392855418 30.3989589362'
p1756
aS'-97.7373349695 30.3980225367'
p1757
aS'-97.7357736874 30.397272708'
p1758
aS'-97.7345530792 30.3966785822'
p1759
aS'-97.7333951224 30.396101859'
p1760
aS'-97.7321208322 30.3954900095'
p1761
aS'-97.725625748 30.3923465351'
p1762
aS'-97.7218086119 30.3911655267'
p1763
aS'-97.7191213916 30.3905444412'
p1764
aS'-97.715949679 30.3903293551'
p1765
aS'-97.7140106519 30.3908567987'
p1766
aS'-97.7127920786 30.3919779953'
p1767
aS'-97.711220831 30.3930386987'
p1768
aS'-97.7082825757 30.392341653'
p1769
aS'-97.7068558593 30.391726045'
p1770
aS'-97.7054857964 30.3911335564'
p1771
aS'-97.703302415 30.3902553678'
p1772
aS'-97.7016824919 30.3894129588'
p1773
aS'-97.7002026128 30.3885468342'
p1774
aS'-97.6986166787 30.3876456205'
p1775
aS'-97.6977560823 30.387155674'
p1776
aS'-97.6957511683 30.386122571'
p1777
aS'-97.694428301 30.3854186606'
p1778
aS'-97.6928340701 30.3847732354'
p1779
aS'-97.6918882703 30.3843938489'
p1780
aS'-97.6882734168 30.3827753254'
p1781
aS'-97.6863743493 30.3819356255'
p1782
aS'-97.6851350535 30.381186008'
p1783
aS'-97.6847389032 30.380934089'
p1784
aS'-97.683432792 30.3802387703'
p1785
aS'-97.6826894474 30.3797283421'
p1786
aS'-97.6818174791 30.3792812602'
p1787
aS'-97.6813120331 30.379031527'
p1788
aS'-97.6809912969 30.3789286321'
p1789
aS'-97.6801932771 30.3785615089'
p1790
aS'-97.6771049958 30.3772646878'
p1791
aS'-97.6769471575 30.3771598733'
p1792
ag293
ag526
ag527
ag528
aa(lp1793
g1748
ag1749
ag1750
aS'-97.7465985497 30.3946360675'
p1794
aS'-97.7465948861 30.3929763183'
p1795
aS'-97.7426451178 30.3842599744'
p1796
aS'-97.7399143263 30.380276845'
p1797
aS'-97.7391564187 30.3782298568'
p1798
aS'-97.7399852178 30.3750269899'
p1799
aS'-97.7410448705 30.3721595156'
p1800
aS'-97.7434568802 30.3645838946'
p1801
aS'-97.744452382 30.3620091704'
p1802
aS'-97.7487768249 30.3526561893'
p1803
aS'-97.7506193235 30.3472693987'
p1804
aS'-97.7538138783 30.3407614684'
p1805
aS'-97.755853239 30.3341073941'
p1806
aS'-97.7559741456 30.3257539222'
p1807
aS'-97.7563301772 30.3185287222'
p1808
aS'-97.7567825704 30.3148408606'
p1809
aS'-97.7581952641 30.3062575463'
p1810
aS'-97.7587004485 30.3029741358'
p1811
aS'-97.7585763941 30.2977927575'
p1812
aS'-97.7604486505 30.2916565367'
p1813
aS'-97.761189041 30.2923746351'
p1814
aS'-97.7607355034 30.2924870259'
p1815
aS'-97.7591653302 30.2917840986'
p1816
aS'-97.7588209853 30.2916534171'
p1817
ag1068
ag1069
ag1070
ag1071
ag1072
ag1073
ag1074
aS'-97.7530828221 30.2870499352'
p1818
aS'-97.7528919961 30.2847672179'
p1819
aS'-97.7520776546 30.2836017535'
p1820
aS'-97.7498167123 30.2839390415'
p1821
aS'-97.7495031808 30.2838722122'
p1822
aS'-97.7483194226 30.2835513035'
p1823
aS'-97.7471847645 30.2832313736'
p1824
aS'-97.7467350073 30.2831040321'
p1825
aS'-97.7459264618 30.2828841842'
p1826
aS'-97.7451750057 30.2826627346'
p1827
aS'-97.7448327192 30.2825458078'
p1828
ag1198
ag1199
ag1200
ag1201
ag1202
ag98
ag99
ag100
aa(lp1829
g1748
ag1749
ag1750
ag1794
ag1795
ag1796
aS'-97.7389289511 30.379912135'
p1830
aS'-97.7340591651 30.3769454201'
p1831
aS'-97.7286454121 30.3741633239'
p1832
aS'-97.723912905 30.3718517171'
p1833
aS'-97.7185529153 30.3673871878'
p1834
aS'-97.7155252554 30.3558915858'
p1835
aS'-97.7126478615 30.3477436735'
p1836
aS'-97.7116246107 30.3469016346'
p1837
aS'-97.709810086 30.3461868606'
p1838
aS'-97.7052981465 30.3438115229'
p1839
aS'-97.7031925401 30.3419193298'
p1840
aS'-97.7022554795 30.3360388887'
p1841
ag76
ag77
ag78
ag79
ag80
ag81
ag82
ag102
ag103
ag104
ag105
ag106
ag107
ag108
ag109
ag110
ag111
ag112
ag113
ag114
ag115
ag116
ag117
aa(lp1842
g1748
ag1749
ag1750
ag1794
ag1795
ag1796
ag1797
ag1798
ag1799
ag1800
ag1801
ag1802
ag1803
ag1804
ag1805
ag1806
ag1807
ag1808
ag1809
ag1810
ag1811
ag1812
ag1813
aS'-97.7619218627 30.2891262837'
p1843
aS'-97.7649154839 30.2848034107'
p1844
aS'-97.7662286142 30.2823452649'
p1845
aS'-97.7688380846 30.2776489853'
p1846
aS'-97.7677797847 30.2756425591'
p1847
ag1107
ag1108
ag1109
ag1110
ag1111
ag1112
ag677
ag678
ag1113
ag1114
ag1115
ag1116
ag1117
ag1118
ag1119
ag1120
ag1121
ag139
ag140
ag141
ag142
ag143
ag144
ag145
ag146
aa(lp1848
g1748
ag1749
ag1750
ag1794
ag1795
ag1796
ag1797
ag1798
ag1799
ag1800
ag1801
ag1802
ag1803
ag1804
ag1805
ag1806
ag1807
ag1808
ag1809
ag1810
ag1811
ag1812
ag1813
ag1843
ag1844
ag1845
ag1846
ag1847
ag1107
ag1108
ag1109
ag1110
ag1111
ag1112
ag677
ag678
ag1113
ag1114
ag1115
ag1116
ag1117
ag1118
ag1119
ag1120
ag1121
ag139
ag140
ag141
ag142
ag143
ag144
aa(lp1849
g1748
ag1749
ag1750
ag1794
ag1795
ag1796
ag1797
ag1798
ag1799
ag1800
ag1801
ag1802
ag1803
ag1804
ag1805
ag1806
ag1807
ag1808
ag1809
ag1810
ag1811
ag1812
ag1813
ag1843
ag1844
ag1845
ag1846
ag1847
ag1107
ag1108
ag1109
ag1110
ag1111
ag1112
ag677
ag678
ag1113
ag1114
ag1115
ag1116
ag1117
ag1118
ag1119
ag1120
ag1121
ag139
ag140
ag141
ag142
ag143
aa(lp1850
g1748
ag1749
ag1750
ag1794
ag1795
ag1796
ag1797
ag1798
ag1799
ag1800
ag1801
ag1802
ag1803
ag1804
ag1805
ag1806
ag1807
ag1808
ag1809
ag1810
ag1811
ag1812
ag1813
ag1843
aS'-97.7633407255 30.2877428882'
p1851
aS'-97.7646097927 30.286290907'
p1852
ag184
ag185
ag186
ag187
ag188
ag189
ag190
ag191
ag192
ag193
ag194
ag195
ag196
ag197
ag198
ag199
aa(lp1853
g1748
ag1749
ag1750
ag1794
ag1795
ag1796
ag1797
ag1798
ag1799
ag1800
ag1801
ag1802
ag1803
ag1804
ag1805
ag1806
ag1807
ag1808
ag1809
ag1810
ag1811
ag1812
ag1813
ag1843
ag1844
ag1845
ag1846
aS'-97.7655008184 30.2753420941'
p1854
ag1127
ag1128
ag1129
ag1130
ag1131
ag1132
ag1133
ag1134
ag1135
ag1136
ag1137
ag1138
ag1139
ag1140
ag1141
ag1142
aa(lp1855
g1748
ag1749
ag1750
ag1794
ag1795
ag1796
ag1797
ag1798
ag1799
ag1800
ag1801
ag1802
ag1803
ag1804
ag1805
ag1806
ag1807
ag1808
ag1809
ag1810
ag1811
ag1812
ag1813
ag1843
ag1844
ag1845
aS'-97.7696951906 30.2767170249'
p1856
ag777
ag245
ag246
ag247
ag248
ag249
ag250
ag251
ag252
ag253
ag254
ag255
ag256
ag257
ag258
ag259
ag260
ag261
ag262
ag263
ag264
ag265
ag266
ag267
ag268
ag269
ag270
ag271
ag272
ag273
ag274
ag275
aa(lp1857
g1748
ag1749
ag1750
ag1794
ag1795
ag1796
ag1797
ag1798
ag1799
ag1800
ag1801
ag1802
ag1803
ag1804
ag1805
ag1806
ag1807
ag1808
ag1809
ag1810
ag1811
ag1812
ag1813
ag1843
ag1844
ag1845
ag1846
ag1847
ag1107
ag1108
ag1109
ag1110
ag1111
ag1112
ag677
ag678
ag1113
ag1114
ag1115
ag1116
ag1117
ag1118
ag1119
ag1120
ag1121
ag139
ag140
ag141
ag142
ag143
ag144
ag145
ag146
ag277
ag278
ag279
aa(lp1858
g1748
ag1749
ag1750
ag1794
ag1795
ag1796
ag1830
ag1831
ag1832
ag1833
ag1834
ag1835
ag1836
ag1837
ag1838
ag1839
ag1840
ag1841
ag76
ag77
ag78
ag79
ag80
ag81
ag82
ag102
ag103
ag119
ag120
ag121
ag122
ag123
ag124
ag125
ag201
ag202
ag203
ag204
ag205
ag206
ag207
ag281
ag282
ag283
aa(lp1859
g1748
ag1749
ag1750
ag1751
ag1752
ag1753
ag1754
ag1755
ag1756
ag1757
ag1758
ag1759
ag1760
ag1761
aS'-97.7310540289 30.3980775387'
p1860
aS'-97.7296181319 30.4007789163'
p1861
aS'-97.725862492 30.4043103357'
p1862
aS'-97.7177307319 30.4079981044'
p1863
aS'-97.7110202848 30.4100268735'
p1864
aS'-97.7086096591 30.4121746739'
p1865
aS'-97.7064669564 30.413872645'
p1866
aS'-97.7060200493 30.414527163'
p1867
aS'-97.7049334409 30.4169799257'
p1868
aS'-97.7037847516 30.4194390269'
p1869
aS'-97.7028290286 30.4193476824'
p1870
aS'-97.7022203428 30.4190118146'
p1871
aS'-97.7008852015 30.418328934'
p1872
aS'-97.699357946 30.4175651415'
p1873
aS'-97.6982210066 30.4169816568'
p1874
aS'-97.6959060654 30.4158091095'
p1875
aS'-97.6932669405 30.4145386751'
p1876
aS'-97.6905821817 30.4132325073'
p1877
aS'-97.6867067966 30.4113570981'
p1878
aS'-97.6851134973 30.4105749918'
p1879
aS'-97.6823475864 30.4092748663'
p1880
aS'-97.6803177376 30.4084439079'
p1881
aS'-97.6793004587 30.4080458193'
p1882
aS'-97.6782212235 30.4078513727'
p1883
aS'-97.6752346636 30.4080288523'
p1884
aS'-97.6739509285 30.4078642108'
p1885
aS'-97.6715219869 30.4068795906'
p1886
aS'-97.6676257827 30.40530521'
p1887
aS'-97.663934232 30.4052608646'
p1888
aS'-97.6573728036 30.4023131367'
p1889
aS'-97.6549192384 30.3995417311'
p1890
aS'-97.6537693552 30.394633732'
p1891
aS'-97.650823619 30.3883410622'
p1892
aS'-97.6485399454 30.3870039251'
p1893
ag313
ag314
ag315
ag316
ag317
ag318
ag319
ag320
ag321
ag322
ag323
ag324
ag325
ag326
ag327
ag328
ag329
ag330
ag331
ag332
ag333
ag334
ag335
ag336
ag337
ag338
ag339
ag340
ag341
ag342
ag343
ag344
ag345
ag346
ag347
ag348
ag349
ag350
ag351
ag352
ag353
ag354
ag355
ag356
ag357
ag358
ag359
ag360
ag361
ag362
ag363
ag364
ag365
ag366
ag367
ag368
ag369
ag370
ag371
ag372
ag373
ag374
ag375
ag376
ag377
ag378
ag379
ag380
ag381
ag382
ag383
ag384
ag385
ag386
ag387
ag388
ag389
ag390
ag391
ag392
ag393
aa(lp1894
g1748
ag1749
ag1750
ag1794
ag1795
ag1796
ag1797
ag1798
ag1799
ag1800
ag1801
ag1802
ag1803
ag1804
ag1805
ag1806
ag1807
ag1808
ag1809
ag1810
ag1811
ag1812
ag1813
ag1843
ag1844
ag1845
ag1856
ag777
ag245
ag246
ag247
ag248
ag249
ag250
ag251
ag252
ag253
ag254
ag255
ag447
ag448
ag449
ag450
ag451
ag452
ag453
ag454
ag455
ag456
ag457
ag458
ag459
ag460
ag461
ag462
ag463
ag464
ag465
ag466
ag467
ag468
ag469
ag470
ag471
ag472
ag473
ag474
ag475
ag476
aa(lp1895
g1748
ag1749
ag1750
ag1794
ag1795
ag1796
ag1797
ag1798
ag1799
ag1800
ag1801
ag1802
ag1803
ag1804
ag1805
ag1806
ag1807
ag1808
ag1809
ag1810
ag1811
ag1812
ag1813
ag1843
ag1844
ag1845
ag1846
ag1847
ag1107
ag1108
ag1109
ag1110
ag1111
ag1112
ag677
ag678
ag1113
ag1114
ag1115
ag1116
ag1117
ag1118
ag1119
ag1120
ag1121
ag139
ag140
ag141
ag142
ag143
ag144
ag145
aa(lp1896
g1748
ag1749
ag1750
ag1794
ag1795
ag1796
ag1797
ag1798
ag1799
ag1800
ag1801
ag1802
ag1803
ag1804
ag1805
ag1806
ag1807
ag1808
ag1809
ag1810
ag1811
ag1812
ag1813
ag1843
ag1844
ag1845
ag1846
ag1847
ag1107
ag1108
ag1109
ag1110
ag1111
ag1112
ag677
ag678
ag679
ag680
ag681
ag485
ag486
aa(lp1897
S'-98.0102758008 30.1318647265'
p1898
aS'-97.9858774623 30.1468451934'
p1899
aS'-97.9721940608 30.1522423534'
p1900
aS'-97.9676833202 30.1556546593'
p1901
aS'-97.9528417761 30.1618478368'
p1902
aS'-97.9454437942 30.1661708672'
p1903
aS'-97.9439814597 30.1669741414'
p1904
aS'-97.9340041539 30.1730359959'
p1905
aS'-97.929477337 30.1746646559'
p1906
aS'-97.9286685542 30.1802432066'
p1907
aS'-97.9288233902 30.181707449'
p1908
aS'-97.9289209472 30.1856880179'
p1909
aS'-97.9269489582 30.1899695035'
p1910
aS'-97.9263977505 30.1908616827'
p1911
aS'-97.9252044976 30.1924012622'
p1912
aS'-97.9189047484 30.1893740075'
p1913
aS'-97.9136188684 30.1864389236'
p1914
aS'-97.9002142729 30.1811033765'
p1915
aS'-97.8963206887 30.1790882831'
p1916
aS'-97.8889013291 30.1726659431'
p1917
aS'-97.8880279311 30.1732361353'
p1918
aS'-97.8848540018 30.1757594276'
p1919
aS'-97.8827884174 30.1786727012'
p1920
aS'-97.8811032636 30.1804874684'
p1921
aS'-97.8732541562 30.1904663502'
p1922
aS'-97.8654525497 30.2005669651'
p1923
aS'-97.857210122 30.2119525951'
p1924
aS'-97.8415429784 30.2165024416'
p1925
aS'-97.8334114018 30.2239723096'
p1926
aS'-97.8305606271 30.2269011032'
p1927
aS'-97.8264133559 30.2322140286'
p1928
aS'-97.8200004758 30.2383639064'
p1929
ag1241
ag1242
ag1243
ag1244
ag1245
ag1246
ag1247
ag1248
ag1249
ag1250
ag1251
ag1126
ag1127
ag1128
ag1129
ag1130
ag1131
ag1132
ag1133
ag1134
ag1135
ag1136
ag1137
ag1138
ag1139
ag1140
ag1141
ag1146
ag1147
ag1148
ag1149
ag1150
ag1151
ag1152
ag1153
ag1252
ag1253
ag584
ag585
ag586
ag587
ag1170
ag1171
ag1172
ag1173
ag1174
ag1175
ag1176
ag860
ag861
ag862
ag863
ag505
ag506
ag507
ag508
ag509
ag510
ag511
ag512
ag513
ag514
ag515
ag516
ag517
ag518
ag519
ag520
ag521
ag522
ag523
ag524
ag525
ag526
ag527
ag528
aa(lp1930
g1898
ag1899
ag1900
ag1901
ag1902
ag1903
ag1904
ag1905
ag1906
ag1907
ag1908
ag1909
ag1910
ag1911
ag1912
ag1913
ag1914
ag1915
ag1916
ag1917
ag1918
ag1919
ag1920
ag1921
ag1922
ag1923
ag1924
ag1925
ag1926
ag1927
ag1928
ag1929
ag1241
ag1242
ag1243
ag1244
ag1245
ag1246
ag1247
ag1248
ag1249
ag1250
ag1251
ag1126
ag1127
ag1128
ag1129
ag1130
ag1131
ag1132
ag1133
ag1134
ag1135
ag1136
ag1137
ag1138
ag1255
ag1256
ag1257
ag1258
ag1259
ag1260
ag1261
ag1262
ag1263
ag1044
ag1045
ag1046
ag1047
ag1062
ag1063
aa(lp1931
g1898
ag1899
ag1900
ag1901
ag1902
ag1903
ag1904
ag1905
ag1906
ag1907
ag1908
ag1909
ag1910
ag1911
ag1912
ag1913
ag1914
ag1915
ag1916
ag1917
ag1918
ag1919
ag1920
ag1921
ag1922
ag1923
ag1924
ag1925
ag1926
ag1927
ag1928
ag1929
ag1241
ag1242
ag1243
ag1244
ag1245
ag1246
ag1247
ag1248
ag1249
ag1265
ag1266
ag966
ag967
ag1066
ag1067
ag1068
ag1069
ag1070
ag1071
ag1072
ag1073
ag1074
ag1075
ag1076
ag1077
ag1078
ag1079
ag1080
ag1081
ag1082
ag1083
ag1084
ag1085
ag1086
ag1087
ag536
ag537
ag538
ag539
ag540
ag541
ag542
ag543
ag116
ag117
aa(lp1932
g1898
ag1899
ag1900
ag1901
ag1902
ag1903
ag1904
ag1905
ag1906
ag1907
ag1908
ag1909
ag1910
ag1911
ag1912
ag1913
ag1914
ag1915
ag1916
ag1917
ag1918
ag1919
ag1920
ag1921
ag1922
ag1923
ag1924
ag1925
ag1926
ag1927
ag1928
aS'-97.8207512905 30.2334896363'
p1933
ag1270
ag1271
ag1272
ag1273
ag1274
ag1275
ag1276
ag1277
ag1278
ag1279
ag1280
ag1281
ag1282
ag1283
ag1284
ag1285
ag1286
ag1287
ag1288
ag1289
ag1290
ag1291
ag1292
ag1293
ag1294
ag1295
ag1296
ag1297
ag1298
ag1299
ag1300
ag1301
ag1302
ag1303
ag1304
ag1305
aa(lp1934
g1898
ag1899
ag1900
ag1901
ag1902
ag1903
ag1904
ag1905
ag1906
ag1907
ag1908
ag1909
ag1910
ag1911
ag1912
ag1913
ag1914
ag1915
ag1916
ag1917
ag1918
ag1919
ag1920
ag1921
ag1922
ag1923
ag1924
ag1925
ag1926
ag1927
ag1928
ag1933
ag1270
ag1271
ag1272
ag1273
ag1274
ag1275
ag1276
ag1277
ag1278
ag1279
ag1280
ag1281
ag1282
ag1283
ag1284
ag1285
ag1286
ag1287
ag1288
ag1289
ag1290
ag1291
ag1292
ag1293
ag1294
ag1295
ag1296
ag1297
ag1298
ag1299
ag1300
ag1301
ag1302
ag1303
ag1304
ag1305
ag838
ag839
aa(lp1935
g1898
ag1899
ag1900
ag1901
ag1902
ag1903
ag1904
ag1905
ag1906
ag1907
ag1908
ag1909
ag1910
ag1911
ag1912
ag1913
ag1914
ag1915
ag1916
ag1917
ag1918
ag1919
ag1920
ag1921
ag1922
ag1923
ag1924
ag1925
ag1926
ag1927
ag1928
ag1933
ag1270
ag1271
ag1272
ag1273
ag1274
ag1275
ag1276
ag1277
ag1278
ag1279
ag1280
ag1281
ag1282
ag1283
ag1284
ag1285
ag1286
ag1287
ag1288
ag1289
ag1290
ag1291
ag1292
ag1293
ag1294
ag1295
ag1296
ag1297
ag1298
ag1299
ag1300
ag1301
ag1302
ag1303
ag1304
ag1305
ag838
ag839
ag840
aa(lp1936
g1898
ag1899
ag1900
ag1901
ag1902
ag1903
ag1904
ag1905
ag1906
ag1907
ag1908
ag1909
ag1910
ag1911
ag1912
ag1913
ag1914
ag1915
ag1916
ag1917
ag1918
ag1919
ag1920
ag1921
ag1922
ag1923
ag1924
ag1925
ag1926
ag1927
ag1928
ag1929
ag1241
ag1242
ag1243
ag1244
ag1245
ag1246
ag1247
ag1248
ag1249
ag1250
ag1251
ag1309
ag240
ag241
ag902
ag903
ag904
ag905
ag906
ag907
ag908
ag909
ag910
ag911
ag912
ag913
ag914
ag915
ag916
ag917
aa(lp1937
g1898
ag1899
ag1900
ag1901
ag1902
ag1903
ag1904
ag1905
ag1906
ag1907
ag1908
ag1909
ag1910
ag1911
ag1912
ag1913
ag1914
ag1915
ag1916
ag1917
ag1918
ag1919
ag1920
ag1921
ag1922
ag1923
ag1924
ag1925
ag1926
ag1927
ag1928
ag1929
ag1241
ag1242
ag1243
ag1244
ag1245
ag1246
ag1247
ag1248
ag1249
ag1250
ag1251
ag1126
ag1127
ag1128
ag1129
ag1130
ag1131
ag1132
ag1133
ag1134
ag1135
ag1136
ag1137
ag1138
ag1139
ag1140
ag1141
ag1142
aa(lp1938
g1898
ag1899
ag1900
ag1901
ag1902
ag1903
ag1904
ag1905
ag1906
ag1907
ag1908
ag1909
ag1910
ag1911
ag1912
aS'-97.9243716285 30.1933323313'
p1939
aS'-97.9241054681 30.1936687367'
p1940
aS'-97.921172031 30.1981060011'
p1941
aS'-97.9199062375 30.2000545026'
p1942
aS'-97.9195179486 30.2006711548'
p1943
aS'-97.9185795508 30.2021405107'
p1944
aS'-97.9158458262 30.2037922016'
p1945
aS'-97.9110648708 30.20605454'
p1946
aS'-97.91027343 30.2072791532'
p1947
aS'-97.9040133463 30.2093991582'
p1948
aS'-97.8989186557 30.2106836899'
p1949
aS'-97.897446643 30.2129005845'
p1950
aS'-97.8964614215 30.2143852062'
p1951
aS'-97.8943473857 30.2182756141'
p1952
aS'-97.8936189962 30.2200645544'
p1953
aS'-97.8930628464 30.2212533621'
p1954
aS'-97.8926006665 30.2219968926'
p1955
aS'-97.8918207231 30.2232670806'
p1956
aS'-97.8913048746 30.224105615'
p1957
aS'-97.8883046276 30.2291948655'
p1958
aS'-97.8792925033 30.2307826776'
p1959
aS'-97.8774527243 30.2318603077'
p1960
aS'-97.8764581204 30.2324513236'
p1961
aS'-97.8752451632 30.2329883901'
p1962
aS'-97.8747001399 30.2333428067'
p1963
aS'-97.8757802743 30.2346949633'
p1964
ag269
ag270
ag271
ag272
ag273
ag274
ag275
aa(lp1965
g1898
ag1899
ag1900
ag1901
ag1902
ag1903
ag1904
ag1905
ag1906
ag1907
ag1908
ag1909
ag1910
ag1911
ag1912
ag1913
ag1914
ag1915
ag1916
ag1917
ag1918
ag1919
ag1920
ag1921
ag1922
ag1923
ag1924
ag1925
ag1926
ag1927
ag1928
ag1933
ag1270
ag1271
ag1272
ag1273
ag1274
ag1275
ag1276
ag1277
ag1278
ag1279
ag1280
ag1281
ag1282
ag1283
ag1284
ag1285
ag1286
ag1287
ag1288
ag1289
ag1290
ag1291
ag1292
ag1293
ag1294
ag1295
ag1296
ag1297
ag1298
ag1299
ag1300
ag1301
ag1302
aa(lp1966
g1898
ag1899
ag1900
ag1901
ag1902
ag1903
ag1904
ag1905
ag1906
ag1907
ag1908
ag1909
ag1910
ag1911
ag1912
ag1913
ag1914
ag1915
ag1916
ag1917
ag1918
ag1919
ag1920
ag1921
ag1922
ag1923
ag1924
ag1925
ag1926
ag1927
ag1928
ag1929
ag1241
ag1242
ag1243
ag1244
ag1245
ag1246
ag1247
ag1248
ag1249
ag1250
ag1313
ag1108
ag1109
ag1110
ag1314
ag1315
ag1316
ag1317
ag1318
ag1319
ag560
ag561
ag562
ag849
ag850
ag851
ag852
ag960
aa(lp1967
g1898
ag1899
ag1900
ag1901
ag1902
ag1903
ag1904
ag1905
ag1906
ag1907
ag1908
ag1909
ag1910
ag1911
ag1912
ag1913
ag1914
ag1915
ag1916
ag1917
ag1918
ag1919
ag1920
ag1921
ag1922
ag1923
ag1924
ag1925
ag1926
ag1927
ag1928
ag1933
ag1270
ag1271
ag1272
ag1273
ag1274
ag1275
ag1276
ag1277
ag1278
ag1279
ag1280
ag1321
ag1322
ag1323
ag1324
ag1325
ag1326
ag1327
ag1328
ag1329
ag1330
ag1331
ag1332
ag1333
ag1334
ag1335
ag1336
ag1337
ag1338
ag1339
ag1340
ag1341
ag1342
ag1343
ag1344
ag1345
ag1346
ag1347
ag1348
ag1349
ag1350
ag1351
ag1352
ag1353
ag1354
ag1355
ag1356
ag1357
ag1358
ag1359
ag1360
ag1361
ag1362
ag1363
ag1364
ag1365
ag1366
ag1367
ag1368
ag1369
ag1370
ag1371
ag633
ag332
ag333
ag334
ag335
ag336
ag337
ag338
ag339
ag340
ag341
ag342
ag343
ag344
ag345
ag346
ag347
ag348
ag349
ag350
ag351
ag352
ag353
ag354
ag355
ag356
ag357
ag358
ag359
ag360
ag361
ag362
ag363
ag364
ag365
ag366
ag367
ag368
ag369
ag370
ag371
ag372
ag373
ag374
ag375
ag376
ag377
ag378
ag379
ag380
ag381
ag382
ag383
ag384
ag385
ag386
ag387
ag388
ag389
ag390
ag391
ag392
ag393
aa(lp1968
g1898
ag1899
ag1900
ag1901
ag1902
ag1903
ag1904
ag1905
ag1906
ag1907
ag1908
ag1909
ag1910
ag1911
ag1912
ag1913
ag1914
ag1915
ag1916
ag1917
ag1918
ag1919
ag1920
ag1921
ag1922
ag1923
ag1924
ag1925
ag1926
ag1927
ag1928
ag1929
ag1241
ag1242
ag1243
ag1244
ag1245
ag1246
ag1247
ag1248
ag1249
ag1265
ag1266
ag966
ag967
ag968
ag653
ag654
ag655
ag656
ag657
ag658
ag659
ag660
ag661
ag662
ag663
ag664
ag665
ag666
ag667
ag668
ag669
ag670
ag435
ag436
ag437
ag438
ag439
ag440
ag441
ag442
ag443
ag444
ag445
aa(lp1969
g1898
ag1899
ag1900
ag1901
ag1902
ag1903
ag1904
ag1905
ag1906
ag1907
ag1908
ag1909
ag1910
ag1911
ag1912
ag1913
ag1914
ag1915
ag1916
ag1917
ag1918
ag1919
ag1920
ag1921
ag1922
ag1923
ag1924
ag1925
ag1926
ag1927
ag1928
ag1933
ag1270
ag1271
ag1272
ag1273
ag1274
ag1275
ag1276
ag1277
ag1278
ag1279
ag1280
ag1281
ag1282
ag1283
ag1284
ag1285
ag1286
ag1287
ag1288
ag1289
ag1290
ag1291
ag1292
ag1293
ag1294
ag1295
ag1296
ag1297
ag1298
ag1299
ag1300
ag1301
ag1302
ag1303
ag1304
ag1305
ag838
aa(lp1970
g1898
ag1899
ag1900
ag1901
ag1902
ag1903
ag1904
ag1905
ag1906
ag1907
ag1908
ag1909
ag1910
ag1911
ag1912
ag1913
ag1914
ag1915
ag1916
ag1917
ag1918
ag1919
ag1920
ag1921
ag1922
ag1923
ag1924
ag1925
ag1926
ag1927
ag1928
ag1933
ag1270
ag1271
ag1272
ag1273
ag1274
ag1275
ag1399
ag1400
ag1401
ag1402
ag1403
ag1404
ag1405
ag1406
ag1407
ag1408
ag1409
ag1410
ag1411
ag1412
ag1413
ag1414
ag1415
ag1416
ag1417
ag1418
ag1419
ag1420
ag1421
ag1422
ag1423
ag1424
ag1425
ag1426
ag1427
aa(lp1971
S'-97.7502704629 30.2479462779'
p1972
ag839
ag840
ag841
ag842
ag843
ag844
ag845
ag846
ag847
ag848
ag849
ag850
ag851
ag852
ag853
ag854
ag855
ag856
ag857
ag858
ag859
ag860
ag861
ag862
ag863
ag505
ag506
ag507
ag508
ag509
ag510
ag511
ag512
ag513
ag514
ag515
ag516
ag517
ag518
ag519
ag520
ag521
ag522
ag523
ag524
ag525
ag526
ag527
ag528
aa(lp1973
g1972
ag839
ag840
ag841
ag842
ag843
ag844
ag845
ag846
ag847
ag848
ag865
ag866
ag867
ag868
ag869
ag870
ag871
ag872
ag873
ag874
ag875
ag876
ag877
ag878
ag879
ag880
ag881
ag882
ag883
aa(lp1974
g1972
ag839
ag840
ag841
ag842
ag843
ag844
ag845
ag846
ag847
ag848
ag865
ag866
ag867
ag868
ag869
ag870
ag871
ag872
ag873
ag874
ag875
ag876
ag877
ag878
ag879
ag880
ag881
ag882
ag490
ag491
ag492
ag96
ag97
ag530
ag531
ag532
ag533
ag534
ag535
ag536
ag537
ag538
ag539
ag540
ag541
ag542
ag543
ag116
ag117
aa(lp1975
g1972
ag146
aa(lp1976
g1972
ag839
aa(lp1977
g1972
ag839
ag840
aa(lp1978
g1972
ag839
ag840
ag841
ag842
ag843
ag844
ag845
ag846
ag847
ag848
ag888
ag889
ag890
ag891
ag892
ag893
ag894
ag895
ag896
ag897
ag898
ag899
ag900
ag901
ag241
ag902
ag903
ag904
ag905
ag906
ag907
ag908
ag909
ag910
ag911
ag912
ag913
ag914
ag915
ag916
ag917
aa(lp1979
g1972
ag839
ag840
ag841
ag842
ag843
ag844
ag845
ag846
ag847
ag848
ag888
ag889
ag919
ag920
ag921
ag922
ag923
ag215
ag216
ag217
ag218
ag219
aa(lp1980
g1972
ag146
ag277
ag278
ag279
ag925
ag926
ag927
ag928
ag929
ag930
ag931
ag932
ag933
ag934
ag935
ag936
ag937
ag938
ag939
ag940
ag941
ag942
ag943
ag944
ag945
ag946
ag947
ag948
ag949
ag950
ag951
ag952
ag953
ag954
ag955
ag956
ag957
ag258
ag259
ag260
ag261
ag262
ag263
ag264
ag265
ag266
ag267
ag268
ag269
ag270
ag271
ag272
ag273
ag274
ag275
aa(lp1981
g1972
ag146
ag277
ag278
ag279
aa(lp1982
g1972
ag839
ag840
ag841
ag842
ag843
ag844
ag845
ag846
ag847
ag848
ag849
ag850
ag851
ag852
ag960
aa(lp1983
g1972
ag839
ag840
ag841
ag842
ag843
ag844
ag845
ag846
ag847
ag848
ag849
ag850
ag851
ag852
ag853
ag854
ag855
ag856
ag857
ag858
ag859
ag860
ag861
ag862
ag863
ag505
ag506
ag507
ag508
ag509
ag510
ag590
ag591
ag592
ag593
ag594
ag595
ag596
ag597
ag598
ag599
ag600
ag601
ag602
ag603
ag604
ag605
ag606
ag607
ag608
ag609
ag610
ag611
ag612
ag613
ag614
ag615
ag616
ag617
ag618
ag619
ag620
ag621
ag622
ag623
ag624
ag625
ag626
ag627
ag628
ag629
ag630
ag631
ag632
ag633
ag332
ag333
ag334
ag335
ag336
ag337
ag338
ag339
ag340
ag341
ag342
ag343
ag344
ag345
ag346
ag347
ag348
ag349
ag350
ag351
ag352
ag353
ag354
ag355
ag356
ag357
ag358
ag359
ag360
ag361
ag362
ag363
ag364
ag365
ag366
ag367
ag368
ag369
ag370
ag371
ag372
ag373
ag374
ag375
ag376
ag377
ag378
ag379
ag380
ag381
ag382
ag383
ag384
ag385
ag386
ag387
ag388
ag389
ag390
ag391
ag392
ag393
aa(lp1984
g1972
ag839
ag840
ag841
ag842
ag843
ag844
ag845
ag846
ag847
ag848
ag888
ag889
ag890
ag891
ag892
ag893
ag894
ag895
ag896
ag897
ag898
ag899
ag963
ag964
ag965
ag966
ag967
ag968
ag653
ag654
ag655
ag656
ag657
ag658
ag659
ag660
ag661
ag662
ag663
ag664
ag665
ag666
ag667
ag668
ag669
ag670
ag435
ag436
ag437
ag438
ag439
ag440
ag441
ag442
ag443
ag444
ag445
aa(lp1985
g1972
ag146
ag277
ag278
ag279
ag925
ag926
ag927
ag928
ag929
ag930
ag931
ag932
ag933
ag934
ag935
ag936
ag937
ag938
ag939
ag940
ag941
ag942
ag943
ag944
ag945
ag946
ag947
ag948
ag949
ag950
ag951
ag952
ag953
ag954
ag970
ag971
ag448
ag449
ag450
ag451
ag452
ag453
ag454
ag455
ag456
ag457
ag458
ag459
ag460
ag461
ag462
ag463
ag464
ag465
ag466
ag467
ag468
ag469
ag470
ag471
ag472
ag473
ag474
ag475
ag476
aa(lp1986
g1972
ag839
ag840
ag841
ag842
ag843
ag844
ag845
ag974
ag975
ag480
ag481
ag482
ag483
ag484
ag485
ag486
aa(lp1987
S'-97.7601507837 30.2575842467'
p1988
aS'-97.7592171107 30.2585520068'
p1989
aS'-97.7585256863 30.2608625551'
p1990
aS'-97.7578321699 30.2607263917'
p1991
aS'-97.7557050208 30.2603442234'
p1992
aS'-97.7534821896 30.2595843968'
p1993
aS'-97.750067299 30.2583824511'
p1994
aS'-97.7484256594 30.258638126'
p1995
aS'-97.7461413542 30.2591118319'
p1996
ag847
ag848
ag849
ag850
ag851
ag852
ag853
ag854
ag855
ag856
ag857
ag858
ag859
ag860
ag861
ag862
ag863
ag505
ag506
ag507
ag508
ag509
ag510
ag511
ag512
ag513
ag514
ag515
ag516
ag517
ag518
ag519
ag520
ag521
ag522
ag523
ag524
ag525
ag526
ag527
ag528
aa(lp1997
g1988
ag1989
ag1990
aS'-97.7582864289 30.2612624859'
p1998
aS'-97.7580411593 30.2621383219'
p1999
aS'-97.7577423196 30.2629306541'
p2000
aS'-97.7571055104 30.2645253931'
p2001
aS'-97.75625185 30.2665134668'
p2002
aS'-97.755890933 30.2672871642'
p2003
aS'-97.7556894877 30.2677556197'
p2004
aS'-97.7546015798 30.2702905787'
p2005
ag1255
ag1256
ag1257
ag1258
ag1259
ag1260
ag1261
ag1262
ag1263
ag1044
ag1045
ag1046
ag1047
ag1062
ag1063
aa(lp2006
g1988
ag1989
ag1990
ag1998
ag1999
ag2000
ag2001
ag2002
ag2003
ag2004
ag2005
ag1255
ag1256
ag1257
ag1258
ag1259
ag1260
ag1261
ag1262
ag1263
ag1044
ag1045
ag1194
ag1195
ag1196
ag1197
ag1198
ag1199
ag1200
ag1201
ag1202
ag530
ag531
ag532
ag533
ag534
ag535
ag536
ag537
ag538
ag539
ag540
ag541
ag542
ag543
ag116
ag117
aa(lp2007
g1988
ag1989
ag1990
ag1991
ag1992
ag1993
ag1994
ag1995
ag1120
ag1121
ag139
ag140
ag141
ag142
ag143
ag144
ag145
ag146
aa(lp2008
g1988
ag1989
ag1990
ag1991
ag1992
ag1993
ag1994
ag1995
ag1120
ag1121
ag139
ag140
ag141
ag142
ag143
ag144
aa(lp2009
g1988
ag1989
ag1990
ag1991
ag1992
ag1993
ag1994
ag1995
ag1120
ag1121
ag139
ag140
ag141
ag142
ag143
aa(lp2010
g1988
ag1989
ag1990
ag1998
ag1999
ag2000
ag2001
ag2002
ag2003
aS'-97.7554734467 30.2673669538'
p2011
aS'-97.7553735337 30.2668311434'
p2012
aS'-97.7555386412 30.2664345938'
p2013
ag896
ag897
ag898
ag899
ag900
ag901
ag241
ag902
ag903
ag904
ag905
ag906
ag907
ag908
ag909
ag910
ag911
ag912
ag913
ag914
ag915
ag916
ag917
aa(lp2014
g1988
ag1989
ag1990
ag1998
ag1999
ag2000
ag2001
ag2002
ag2003
ag2004
ag2005
ag1139
ag1140
ag1141
ag1142
aa(lp2015
g1988
aS'-97.7614905568 30.2560517113'
p2016
aS'-97.7621573138 30.2549264589'
p2017
aS'-97.7625872419 30.2542475041'
p2018
aS'-97.765129693 30.2512071294'
p2019
aS'-97.7674443397 30.2494114532'
p2020
aS'-97.7685325199 30.2488887892'
p2021
aS'-97.7699473517 30.2484129458'
p2022
aS'-97.7707571679 30.2482118445'
p2023
aS'-97.7720162971 30.2478523655'
p2024
aS'-97.7728167378 30.2476460857'
p2025
aS'-97.7742289375 30.2474043061'
p2026
aS'-97.7752245395 30.247264947'
p2027
aS'-97.7771831095 30.2469239208'
p2028
aS'-97.7781146906 30.2464885113'
p2029
aS'-97.7786819957 30.2461562281'
p2030
aS'-97.7798431187 30.2453511203'
p2031
aS'-97.7813970702 30.2442576199'
p2032
aS'-97.7823602051 30.2436524821'
p2033
aS'-97.7839758076 30.2424497539'
p2034
aS'-97.7846430209 30.2418937162'
p2035
aS'-97.7853608702 30.2413991891'
p2036
aS'-97.789282697 30.2386700886'
p2037
aS'-97.7925904635 30.2362595289'
p2038
aS'-97.8030990062 30.232202593'
p2039
ag951
ag952
ag953
ag954
ag955
ag956
ag957
ag258
ag259
ag260
ag261
ag262
ag263
ag264
ag265
ag266
ag267
ag268
ag269
ag270
ag271
ag272
ag273
ag274
ag275
aa(lp2040
g1988
ag2016
ag2017
ag2018
ag2019
aS'-97.7656080396 30.2494207555'
p2041
aS'-97.7643509415 30.2489830038'
p2042
aS'-97.7632048374 30.2486602305'
p2043
aS'-97.7620543566 30.2483236065'
p2044
aS'-97.7606089749 30.247879288'
p2045
aS'-97.7591760522 30.2474434542'
p2046
aS'-97.7577907216 30.2469755571'
p2047
aS'-97.7563389586 30.2465640652'
p2048
aS'-97.753527328 30.2458006398'
p2049
aS'-97.7524330237 30.2454980633'
p2050
aS'-97.7513036386 30.2451452644'
p2051
ag279
aa(lp2052
g1988
ag1989
ag1990
ag1991
ag1992
ag1993
ag1994
ag1995
ag1996
ag847
ag848
ag849
ag850
ag851
ag852
ag960
aa(lp2053
g1988
ag1989
ag1990
ag1991
ag1992
ag1993
ag1994
ag1995
ag1996
ag847
ag848
ag849
ag850
ag851
ag852
ag853
ag854
ag855
ag856
ag857
ag858
ag859
ag860
ag861
ag862
ag863
ag505
ag506
ag507
ag508
ag509
ag510
ag590
ag591
ag592
ag593
ag594
ag595
ag596
ag597
ag598
ag599
ag600
ag601
ag602
ag603
ag604
ag605
ag606
ag607
ag608
ag609
ag610
ag611
ag612
ag613
ag614
ag615
ag616
ag617
ag618
ag619
ag620
ag621
ag622
ag623
ag624
ag625
ag626
ag627
ag628
ag629
ag630
ag631
ag632
ag633
ag332
ag333
ag334
ag335
ag336
ag337
ag338
ag339
ag340
ag341
ag342
ag343
ag344
ag345
ag346
ag347
ag348
ag349
ag350
ag351
ag352
ag353
ag354
ag355
ag356
ag357
ag358
ag359
ag360
ag361
ag362
ag363
ag364
ag365
ag366
ag367
ag368
ag369
ag370
ag371
ag372
ag373
ag374
ag375
ag376
ag377
ag378
ag379
ag380
ag381
ag382
ag383
ag384
ag385
ag386
ag387
ag388
ag389
ag390
ag391
ag392
ag393
aa(lp2054
g1988
ag1989
ag1990
ag1998
ag1999
ag2000
ag2001
ag2002
ag2003
ag2011
ag2012
ag2013
ag896
ag897
ag898
ag899
ag963
ag964
ag965
ag966
ag967
ag968
ag653
ag654
ag655
ag656
ag657
ag658
ag659
ag660
ag661
ag662
ag663
ag664
ag665
ag666
ag667
ag668
ag669
ag670
ag435
ag436
ag437
ag438
ag439
ag440
ag441
ag442
ag443
ag444
ag445
aa(lp2055
g1988
ag2016
ag2017
ag2018
ag2019
ag2020
ag2021
ag2022
ag2023
ag2024
ag2025
ag2026
ag2027
ag2028
ag2029
ag2030
ag2031
ag2032
ag2033
ag2034
ag2035
ag2036
ag2037
ag2038
ag2039
ag951
ag952
ag953
ag954
ag970
ag971
ag448
ag449
ag450
ag451
ag452
ag453
ag454
ag455
ag456
ag457
ag458
ag459
ag460
ag461
ag462
ag463
ag464
ag465
ag466
ag467
ag468
ag469
ag470
ag471
ag472
ag473
ag474
ag475
ag476
aa(lp2056
g1988
ag1989
ag1990
ag1991
ag1992
ag1993
ag1994
ag1995
ag1120
ag1121
ag139
ag140
ag141
ag142
ag143
ag144
ag145
aatp2057
bag19
(g20
(I0
tp2058
g22
tp2059
Rp2060
(I1
(L1L
L240L
tp2061
g29
I00
(lp2062
S'ClayPit'
p2063
aS'ETC'
p2064
aS'EnotecaV'
p2065
aS'HomeSlice'
p2066
aS'Hopdoddy'
p2067
aS'HulaHut'
p2068
aS'HutsHamburger'
p2069
aS'JackAllen'
p2070
aS'Magnolia'
p2071
aS'Moonshine'
p2072
aS'RRDonuts'
p2073
aS'Rudys'
p2074
aS'SaltLick'
p2075
aS'SouthCong'
p2076
aS'Uchi'
p2077
aS'Chuys'
p2078
ag2064
ag2065
ag2066
ag2067
ag2068
ag2069
ag2070
ag2071
ag2072
ag2073
ag2074
ag2075
ag2076
ag2077
ag2078
ag2063
ag2065
ag2066
ag2067
ag2068
ag2069
ag2070
ag2071
ag2072
ag2073
ag2074
ag2075
ag2076
ag2077
ag2078
ag2063
ag2064
ag2066
ag2067
ag2068
ag2069
ag2070
ag2071
ag2072
ag2073
ag2074
ag2075
ag2076
ag2077
ag2078
ag2063
ag2064
ag2065
ag2067
ag2068
ag2069
ag2070
ag2071
ag2072
ag2073
ag2074
ag2075
ag2076
ag2077
ag2078
ag2063
ag2064
ag2065
ag2066
ag2068
ag2069
ag2070
ag2071
ag2072
ag2073
ag2074
ag2075
ag2076
ag2077
ag2078
ag2063
ag2064
ag2065
ag2066
ag2067
ag2069
ag2070
ag2071
ag2072
ag2073
ag2074
ag2075
ag2076
ag2077
ag2078
ag2063
ag2064
ag2065
ag2066
ag2067
ag2068
ag2070
ag2071
ag2072
ag2073
ag2074
ag2075
ag2076
ag2077
ag2078
ag2063
ag2064
ag2065
ag2066
ag2067
ag2068
ag2069
ag2071
ag2072
ag2073
ag2074
ag2075
ag2076
ag2077
ag2078
ag2063
ag2064
ag2065
ag2066
ag2067
ag2068
ag2069
ag2070
ag2072
ag2073
ag2074
ag2075
ag2076
ag2077
ag2078
ag2063
ag2064
ag2065
ag2066
ag2067
ag2068
ag2069
ag2070
ag2071
ag2073
ag2074
ag2075
ag2076
ag2077
ag2078
ag2063
ag2064
ag2065
ag2066
ag2067
ag2068
ag2069
ag2070
ag2071
ag2072
ag2074
ag2075
ag2076
ag2077
ag2078
ag2063
ag2064
ag2065
ag2066
ag2067
ag2068
ag2069
ag2070
ag2071
ag2072
ag2073
ag2075
ag2076
ag2077
ag2078
ag2063
ag2064
ag2065
ag2066
ag2067
ag2068
ag2069
ag2070
ag2071
ag2072
ag2073
ag2074
ag2076
ag2077
ag2078
ag2063
ag2064
ag2065
ag2066
ag2067
ag2068
ag2069
ag2070
ag2071
ag2072
ag2073
ag2074
ag2075
ag2077
ag2078
ag2063
ag2064
ag2065
ag2066
ag2067
ag2068
ag2069
ag2070
ag2071
ag2072
ag2073
ag2074
ag2075
ag2076
atp2079
bag19
(g20
(I0
tp2080
g22
tp2081
Rp2082
(I1
(L1L
L240L
tp2083
g29
I00
(lp2084
g2078
ag2078
ag2078
ag2078
ag2078
ag2078
ag2078
ag2078
ag2078
ag2078
ag2078
ag2078
ag2078
ag2078
ag2078
ag2063
ag2063
ag2063
ag2063
ag2063
ag2063
ag2063
ag2063
ag2063
ag2063
ag2063
ag2063
ag2063
ag2063
ag2063
ag2064
ag2064
ag2064
ag2064
ag2064
ag2064
ag2064
ag2064
ag2064
ag2064
ag2064
ag2064
ag2064
ag2064
ag2064
ag2065
ag2065
ag2065
ag2065
ag2065
ag2065
ag2065
ag2065
ag2065
ag2065
ag2065
ag2065
ag2065
ag2065
ag2065
ag2066
ag2066
ag2066
ag2066
ag2066
ag2066
ag2066
ag2066
ag2066
ag2066
ag2066
ag2066
ag2066
ag2066
ag2066
ag2067
ag2067
ag2067
ag2067
ag2067
ag2067
ag2067
ag2067
ag2067
ag2067
ag2067
ag2067
ag2067
ag2067
ag2067
ag2068
ag2068
ag2068
ag2068
ag2068
ag2068
ag2068
ag2068
ag2068
ag2068
ag2068
ag2068
ag2068
ag2068
ag2068
ag2069
ag2069
ag2069
ag2069
ag2069
ag2069
ag2069
ag2069
ag2069
ag2069
ag2069
ag2069
ag2069
ag2069
ag2069
ag2070
ag2070
ag2070
ag2070
ag2070
ag2070
ag2070
ag2070
ag2070
ag2070
ag2070
ag2070
ag2070
ag2070
ag2070
ag2071
ag2071
ag2071
ag2071
ag2071
ag2071
ag2071
ag2071
ag2071
ag2071
ag2071
ag2071
ag2071
ag2071
ag2071
ag2072
ag2072
ag2072
ag2072
ag2072
ag2072
ag2072
ag2072
ag2072
ag2072
ag2072
ag2072
ag2072
ag2072
ag2072
ag2073
ag2073
ag2073
ag2073
ag2073
ag2073
ag2073
ag2073
ag2073
ag2073
ag2073
ag2073
ag2073
ag2073
ag2073
ag2074
ag2074
ag2074
ag2074
ag2074
ag2074
ag2074
ag2074
ag2074
ag2074
ag2074
ag2074
ag2074
ag2074
ag2074
ag2075
ag2075
ag2075
ag2075
ag2075
ag2075
ag2075
ag2075
ag2075
ag2075
ag2075
ag2075
ag2075
ag2075
ag2075
ag2076
ag2076
ag2076
ag2076
ag2076
ag2076
ag2076
ag2076
ag2076
ag2076
ag2076
ag2076
ag2076
ag2076
ag2076
ag2077
ag2077
ag2077
ag2077
ag2077
ag2077
ag2077
ag2077
ag2077
ag2077
ag2077
ag2077
ag2077
ag2077
ag2077
atp2085
ba(lp2086
g15
(g16
(dp2087
g18
g19
(g20
(I0
tp2088
g22
tp2089
Rp2090
(I1
(L5L
tp2091
g29
I00
(lp2092
g35
ag36
ag37
ag38
ag39
atp2093
bsg42
Nstp2094
Rp2095
ag15
(g16
(dp2096
g18
g19
(g20
(I0
tp2097
g22
tp2098
Rp2099
(I1
(L1L
tp2100
g29
I00
(lp2101
g40
atp2102
bsg42
Nstp2103
Rp2104
ag15
(g16
(dp2105
g18
g19
(g20
(I0
tp2106
g22
tp2107
Rp2108
(I1
(L1L
tp2109
g29
I00
(lp2110
g34
atp2111
bsg42
Nstp2112
Rp2113
ag15
(g16
(dp2114
g18
g19
(g20
(I0
tp2115
g22
tp2116
Rp2117
(I1
(L1L
tp2118
g29
I00
(lp2119
g33
atp2120
bsg42
Nstp2121
Rp2122
a(dp2123
S'0.14.1'
p2124
(dp2125
S'axes'
p2126
g14
sS'blocks'
p2127
(lp2128
(dp2129
S'mgr_locs'
p2130
c__builtin__
slice
p2131
(I2
I7
I1
tp2132
Rp2133
sS'values'
p2134
g54
sa(dp2135
g2130
g2131
(I7
I8
I1
tp2136
Rp2137
sg2134
g65
sa(dp2138
g2130
g2131
(I1
I2
I1
tp2139
Rp2140
sg2134
g2060
sa(dp2141
g2130
g2131
(I0
I1
I1
tp2142
Rp2143
sg2134
g2082
sasstp2144
bsb.